Archive member included to satisfy reference by file (symbol)

/opt/devkitpro/devkitPPC/lib/gcc/powerpc-eabi/6.2.0/../../../../powerpc-eabi/lib/libm.a(lib_a-s_sin.o)
                              main.o (sin)
/opt/devkitpro/devkitPPC/lib/gcc/powerpc-eabi/6.2.0/../../../../powerpc-eabi/lib/libm.a(lib_a-s_sine.o)
                              /opt/devkitpro/devkitPPC/lib/gcc/powerpc-eabi/6.2.0/../../../../powerpc-eabi/lib/libm.a(lib_a-s_sin.o) (sine)
/opt/devkitpro/devkitPPC/lib/gcc/powerpc-eabi/6.2.0/../../../../powerpc-eabi/lib/libm.a(lib_a-s_fabs.o)
                              /opt/devkitpro/devkitPPC/lib/gcc/powerpc-eabi/6.2.0/../../../../powerpc-eabi/lib/libm.a(lib_a-s_sine.o) (fabs)
/opt/devkitpro/devkitPPC/lib/gcc/powerpc-eabi/6.2.0/../../../../powerpc-eabi/lib/libm.a(lib_a-s_mathcnst.o)
                              /opt/devkitpro/devkitPPC/lib/gcc/powerpc-eabi/6.2.0/../../../../powerpc-eabi/lib/libm.a(lib_a-s_sine.o) (z_notanum)
/opt/devkitpro/devkitPPC/lib/gcc/powerpc-eabi/6.2.0/../../../../powerpc-eabi/lib/libm.a(lib_a-s_numtest.o)
                              /opt/devkitpro/devkitPPC/lib/gcc/powerpc-eabi/6.2.0/../../../../powerpc-eabi/lib/libm.a(lib_a-s_sine.o) (numtest)
/opt/devkitpro/devkitPPC/lib/gcc/powerpc-eabi/6.2.0/libgcc.a(_divdi3.o)
                              main.o (__divdi3)
/opt/devkitpro/devkitPPC/lib/gcc/powerpc-eabi/6.2.0/libgcc.a(_moddi3.o)
                              main.o (__moddi3)
/opt/devkitpro/devkitPPC/lib/gcc/powerpc-eabi/6.2.0/libgcc.a(_udivdi3.o)
                              main.o (__udivdi3)
/opt/devkitpro/devkitPPC/lib/gcc/powerpc-eabi/6.2.0/../../../../powerpc-eabi/lib/libsysbase.a(iosupport.o)
                              sd_fat_devoptab.o (devoptab_list)
/opt/devkitpro/devkitPPC/lib/gcc/powerpc-eabi/6.2.0/../../../../powerpc-eabi/lib/libsysbase.a(mkdir.o)
                              fs_utils.o (mkdir)
/opt/devkitpro/devkitPPC/lib/gcc/powerpc-eabi/6.2.0/../../../../powerpc-eabi/lib/libc.a(lib_a-errno.o)
                              sd_fat_devoptab.o (__errno)
/opt/devkitpro/devkitPPC/lib/gcc/powerpc-eabi/6.2.0/../../../../powerpc-eabi/lib/libc.a(lib_a-impure.o)
                              /opt/devkitpro/devkitPPC/lib/gcc/powerpc-eabi/6.2.0/../../../../powerpc-eabi/lib/libsysbase.a(mkdir.o) (_impure_ptr)
/opt/devkitpro/devkitPPC/lib/gcc/powerpc-eabi/6.2.0/../../../../powerpc-eabi/lib/libc.a(lib_a-memcpy.o)
                              main.o (memcpy)
/opt/devkitpro/devkitPPC/lib/gcc/powerpc-eabi/6.2.0/../../../../powerpc-eabi/lib/libc.a(lib_a-memset.o)
                              main.o (memset)
/opt/devkitpro/devkitPPC/lib/gcc/powerpc-eabi/6.2.0/../../../../powerpc-eabi/lib/libc.a(lib_a-snprintf.o)
                              main.o (snprintf)
/opt/devkitpro/devkitPPC/lib/gcc/powerpc-eabi/6.2.0/../../../../powerpc-eabi/lib/libc.a(lib_a-strchr.o)
                              sd_fat_devoptab.o (strchr)
/opt/devkitpro/devkitPPC/lib/gcc/powerpc-eabi/6.2.0/../../../../powerpc-eabi/lib/libc.a(lib_a-strcmp.o)
                              sd_fat_devoptab.o (strcmp)
/opt/devkitpro/devkitPPC/lib/gcc/powerpc-eabi/6.2.0/../../../../powerpc-eabi/lib/libc.a(lib_a-strcpy.o)
                              sd_fat_devoptab.o (strcpy)
/opt/devkitpro/devkitPPC/lib/gcc/powerpc-eabi/6.2.0/../../../../powerpc-eabi/lib/libc.a(lib_a-strlen.o)
                              sd_fat_devoptab.o (strlen)
/opt/devkitpro/devkitPPC/lib/gcc/powerpc-eabi/6.2.0/../../../../powerpc-eabi/lib/libc.a(lib_a-strncmp.o)
                              /opt/devkitpro/devkitPPC/lib/gcc/powerpc-eabi/6.2.0/../../../../powerpc-eabi/lib/libsysbase.a(iosupport.o) (strncmp)
/opt/devkitpro/devkitPPC/lib/gcc/powerpc-eabi/6.2.0/../../../../powerpc-eabi/lib/libc.a(lib_a-strncpy.o)
                              sd_fat_devoptab.o (strncpy)
/opt/devkitpro/devkitPPC/lib/gcc/powerpc-eabi/6.2.0/../../../../powerpc-eabi/lib/libc.a(lib_a-strrchr.o)
                              fs_utils.o (strrchr)
/opt/devkitpro/devkitPPC/lib/gcc/powerpc-eabi/6.2.0/../../../../powerpc-eabi/lib/libc.a(lib_a-strtok.o)
                              sd_fat_devoptab.o (strtok)
/opt/devkitpro/devkitPPC/lib/gcc/powerpc-eabi/6.2.0/../../../../powerpc-eabi/lib/libc.a(lib_a-strtok_r.o)
                              /opt/devkitpro/devkitPPC/lib/gcc/powerpc-eabi/6.2.0/../../../../powerpc-eabi/lib/libc.a(lib_a-strtok.o) (__strtok_r)
/opt/devkitpro/devkitPPC/lib/gcc/powerpc-eabi/6.2.0/../../../../powerpc-eabi/lib/libc.a(lib_a-svfprintf.o)
                              /opt/devkitpro/devkitPPC/lib/gcc/powerpc-eabi/6.2.0/../../../../powerpc-eabi/lib/libc.a(lib_a-snprintf.o) (_svfprintf_r)
/opt/devkitpro/devkitPPC/lib/gcc/powerpc-eabi/6.2.0/../../../../powerpc-eabi/lib/libc.a(lib_a-sysclose.o)
                              fs_utils.o (close)
/opt/devkitpro/devkitPPC/lib/gcc/powerpc-eabi/6.2.0/../../../../powerpc-eabi/lib/libc.a(lib_a-syslseek.o)
                              fs_utils.o (lseek)
/opt/devkitpro/devkitPPC/lib/gcc/powerpc-eabi/6.2.0/../../../../powerpc-eabi/lib/libc.a(lib_a-sysopen.o)
                              fs_utils.o (open)
/opt/devkitpro/devkitPPC/lib/gcc/powerpc-eabi/6.2.0/../../../../powerpc-eabi/lib/libc.a(lib_a-sysread.o)
                              fs_utils.o (read)
/opt/devkitpro/devkitPPC/lib/gcc/powerpc-eabi/6.2.0/../../../../powerpc-eabi/lib/libc.a(lib_a-sysstat.o)
                              fs_utils.o (stat)
/opt/devkitpro/devkitPPC/lib/gcc/powerpc-eabi/6.2.0/../../../../powerpc-eabi/lib/libc.a(lib_a-wcrtomb.o)
                              /opt/devkitpro/devkitPPC/lib/gcc/powerpc-eabi/6.2.0/../../../../powerpc-eabi/lib/libc.a(lib_a-svfprintf.o) (_wcrtomb_r)
/opt/devkitpro/devkitPPC/lib/gcc/powerpc-eabi/6.2.0/../../../../powerpc-eabi/lib/libc.a(lib_a-wcsrtombs.o)
                              /opt/devkitpro/devkitPPC/lib/gcc/powerpc-eabi/6.2.0/../../../../powerpc-eabi/lib/libc.a(lib_a-svfprintf.o) (_wcsrtombs_r)
/opt/devkitpro/devkitPPC/lib/gcc/powerpc-eabi/6.2.0/../../../../powerpc-eabi/lib/libc.a(lib_a-wctomb_r.o)
                              /opt/devkitpro/devkitPPC/lib/gcc/powerpc-eabi/6.2.0/../../../../powerpc-eabi/lib/libc.a(lib_a-wcrtomb.o) (__wctomb)
/opt/devkitpro/devkitPPC/lib/gcc/powerpc-eabi/6.2.0/../../../../powerpc-eabi/lib/libc.a(lib_a-dtoa.o)
                              /opt/devkitpro/devkitPPC/lib/gcc/powerpc-eabi/6.2.0/../../../../powerpc-eabi/lib/libc.a(lib_a-svfprintf.o) (_dtoa_r)
/opt/devkitpro/devkitPPC/lib/gcc/powerpc-eabi/6.2.0/../../../../powerpc-eabi/lib/libc.a(lib_a-locale.o)
                              /opt/devkitpro/devkitPPC/lib/gcc/powerpc-eabi/6.2.0/../../../../powerpc-eabi/lib/libc.a(lib_a-svfprintf.o) (__locale_charset)
/opt/devkitpro/devkitPPC/lib/gcc/powerpc-eabi/6.2.0/../../../../powerpc-eabi/lib/libc.a(lib_a-mbtowc_r.o)
                              /opt/devkitpro/devkitPPC/lib/gcc/powerpc-eabi/6.2.0/../../../../powerpc-eabi/lib/libc.a(lib_a-locale.o) (__utf8_mbtowc)
/opt/devkitpro/devkitPPC/lib/gcc/powerpc-eabi/6.2.0/../../../../powerpc-eabi/lib/libc.a(lib_a-memchr.o)
                              /opt/devkitpro/devkitPPC/lib/gcc/powerpc-eabi/6.2.0/../../../../powerpc-eabi/lib/libc.a(lib_a-svfprintf.o) (memchr)
/opt/devkitpro/devkitPPC/lib/gcc/powerpc-eabi/6.2.0/../../../../powerpc-eabi/lib/libc.a(lib_a-mprec.o)
                              /opt/devkitpro/devkitPPC/lib/gcc/powerpc-eabi/6.2.0/../../../../powerpc-eabi/lib/libc.a(lib_a-dtoa.o) (_Balloc)
/opt/devkitpro/devkitPPC/lib/gcc/powerpc-eabi/6.2.0/../../../../powerpc-eabi/lib/libc.a(lib_a-s_fpclassify.o)
                              /opt/devkitpro/devkitPPC/lib/gcc/powerpc-eabi/6.2.0/../../../../powerpc-eabi/lib/libc.a(lib_a-svfprintf.o) (__fpclassifyd)
/opt/devkitpro/devkitPPC/lib/gcc/powerpc-eabi/6.2.0/../../../../powerpc-eabi/lib/libc.a(lib_a-strcasecmp.o)
                              /opt/devkitpro/devkitPPC/lib/gcc/powerpc-eabi/6.2.0/../../../../powerpc-eabi/lib/libc.a(lib_a-locale.o) (strcasecmp)
/opt/devkitpro/devkitPPC/lib/gcc/powerpc-eabi/6.2.0/../../../../powerpc-eabi/lib/libc.a(lib_a-strcat.o)
                              /opt/devkitpro/devkitPPC/lib/gcc/powerpc-eabi/6.2.0/../../../../powerpc-eabi/lib/libc.a(lib_a-locale.o) (strcat)
/opt/devkitpro/devkitPPC/lib/gcc/powerpc-eabi/6.2.0/../../../../powerpc-eabi/lib/libc.a(lib_a-strlcpy.o)
                              /opt/devkitpro/devkitPPC/lib/gcc/powerpc-eabi/6.2.0/../../../../powerpc-eabi/lib/libc.a(lib_a-locale.o) (strlcpy)
/opt/devkitpro/devkitPPC/lib/gcc/powerpc-eabi/6.2.0/../../../../powerpc-eabi/lib/libc.a(lib_a-strncasecmp.o)
                              /opt/devkitpro/devkitPPC/lib/gcc/powerpc-eabi/6.2.0/../../../../powerpc-eabi/lib/libc.a(lib_a-locale.o) (strncasecmp)
/opt/devkitpro/devkitPPC/lib/gcc/powerpc-eabi/6.2.0/../../../../powerpc-eabi/lib/libc.a(lib_a-strtol.o)
                              /opt/devkitpro/devkitPPC/lib/gcc/powerpc-eabi/6.2.0/../../../../powerpc-eabi/lib/libc.a(lib_a-locale.o) (_strtol_r)
/opt/devkitpro/devkitPPC/lib/gcc/powerpc-eabi/6.2.0/../../../../powerpc-eabi/lib/libc.a(lib_a-svfiprintf.o)
                              /opt/devkitpro/devkitPPC/lib/gcc/powerpc-eabi/6.2.0/../../../../powerpc-eabi/lib/libc.a(lib_a-svfprintf.o) (__ssprint_r)
/opt/devkitpro/devkitPPC/lib/gcc/powerpc-eabi/6.2.0/../../../../powerpc-eabi/lib/libc.a(lib_a-wcsnrtombs.o)
                              /opt/devkitpro/devkitPPC/lib/gcc/powerpc-eabi/6.2.0/../../../../powerpc-eabi/lib/libc.a(lib_a-wcsrtombs.o) (_wcsnrtombs_r)
/opt/devkitpro/devkitPPC/lib/gcc/powerpc-eabi/6.2.0/../../../../powerpc-eabi/lib/libc.a(lib_a-ctype_.o)
                              /opt/devkitpro/devkitPPC/lib/gcc/powerpc-eabi/6.2.0/../../../../powerpc-eabi/lib/libc.a(lib_a-locale.o) (__set_ctype)
/opt/devkitpro/devkitPPC/lib/gcc/powerpc-eabi/6.2.0/../../../../powerpc-eabi/lib/libc.a(lib_a-getenv_r.o)
                              /opt/devkitpro/devkitPPC/lib/gcc/powerpc-eabi/6.2.0/../../../../powerpc-eabi/lib/libc.a(lib_a-locale.o) (_getenv_r)
/opt/devkitpro/devkitPPC/lib/gcc/powerpc-eabi/6.2.0/../../../../powerpc-eabi/lib/libc.a(lib_a-memmove.o)
                              /opt/devkitpro/devkitPPC/lib/gcc/powerpc-eabi/6.2.0/../../../../powerpc-eabi/lib/libc.a(lib_a-svfiprintf.o) (memmove)
/opt/devkitpro/devkitPPC/lib/gcc/powerpc-eabi/6.2.0/../../../../powerpc-eabi/lib/libc.a(lib_a-environ.o)
                              /opt/devkitpro/devkitPPC/lib/gcc/powerpc-eabi/6.2.0/../../../../powerpc-eabi/lib/libc.a(lib_a-getenv_r.o) (environ)
/opt/devkitpro/devkitPPC/lib/gcc/powerpc-eabi/6.2.0/../../../../powerpc-eabi/lib/libc.a(lib_a-envlock.o)
                              /opt/devkitpro/devkitPPC/lib/gcc/powerpc-eabi/6.2.0/../../../../powerpc-eabi/lib/libc.a(lib_a-getenv_r.o) (__env_lock)
/opt/devkitpro/devkitPPC/lib/gcc/powerpc-eabi/6.2.0/../../../../powerpc-eabi/lib/libsysbase.a(close.o)
                              /opt/devkitpro/devkitPPC/lib/gcc/powerpc-eabi/6.2.0/../../../../powerpc-eabi/lib/libc.a(lib_a-sysclose.o) (_close_r)
/opt/devkitpro/devkitPPC/lib/gcc/powerpc-eabi/6.2.0/../../../../powerpc-eabi/lib/libsysbase.a(lseek.o)
                              /opt/devkitpro/devkitPPC/lib/gcc/powerpc-eabi/6.2.0/../../../../powerpc-eabi/lib/libc.a(lib_a-syslseek.o) (_lseek_r)
/opt/devkitpro/devkitPPC/lib/gcc/powerpc-eabi/6.2.0/../../../../powerpc-eabi/lib/libsysbase.a(open.o)
                              /opt/devkitpro/devkitPPC/lib/gcc/powerpc-eabi/6.2.0/../../../../powerpc-eabi/lib/libc.a(lib_a-sysopen.o) (_open_r)
/opt/devkitpro/devkitPPC/lib/gcc/powerpc-eabi/6.2.0/../../../../powerpc-eabi/lib/libsysbase.a(read.o)
                              /opt/devkitpro/devkitPPC/lib/gcc/powerpc-eabi/6.2.0/../../../../powerpc-eabi/lib/libc.a(lib_a-sysread.o) (_read_r)
/opt/devkitpro/devkitPPC/lib/gcc/powerpc-eabi/6.2.0/../../../../powerpc-eabi/lib/libsysbase.a(stat.o)
                              /opt/devkitpro/devkitPPC/lib/gcc/powerpc-eabi/6.2.0/../../../../powerpc-eabi/lib/libc.a(lib_a-sysstat.o) (_stat_r)
/opt/devkitpro/devkitPPC/lib/gcc/powerpc-eabi/6.2.0/../../../../powerpc-eabi/lib/libsysbase.a(syscall_support.o)
                              /opt/devkitpro/devkitPPC/lib/gcc/powerpc-eabi/6.2.0/../../../../powerpc-eabi/lib/libc.a(lib_a-envlock.o) (__libc_lock_init)
/opt/devkitpro/devkitPPC/lib/gcc/powerpc-eabi/6.2.0/../../../../powerpc-eabi/lib/libsysbase.a(handle_manager.o)
                              /opt/devkitpro/devkitPPC/lib/gcc/powerpc-eabi/6.2.0/../../../../powerpc-eabi/lib/libsysbase.a(close.o) (__release_handle)
/opt/devkitpro/devkitPPC/lib/gcc/powerpc-eabi/6.2.0/libgcc.a(_umoddi3.o)
                              /opt/devkitpro/devkitPPC/lib/gcc/powerpc-eabi/6.2.0/../../../../powerpc-eabi/lib/libc.a(lib_a-svfprintf.o) (__umoddi3)

Allocating common symbols
Common symbol       size              file

voiceBuffer         0x14              main.o
voice1              0x28              main.o

Discarded input sections

 .text          0x0000000000000000        0x0 main.o
 .data          0x0000000000000000        0x0 main.o
 .bss           0x0000000000000000        0x0 main.o
 .text.playAlarm
                0x0000000000000000       0x8c main.o
 .text.generateSineWave
                0x0000000000000000      0x13c main.o
 .comment       0x0000000000000000       0x23 main.o
 .gnu.attributes
                0x0000000000000000       0x10 main.o
 .text          0x0000000000000000        0x0 entry.o
 .data          0x0000000000000000        0x0 entry.o
 .bss           0x0000000000000000        0x0 entry.o
 .comment       0x0000000000000000       0x23 entry.o
 .text          0x0000000000000000        0x0 aoc_functions.o
 .data          0x0000000000000000       0x24 aoc_functions.o
 .bss           0x0000000000000000        0x0 aoc_functions.o
 .text.InitAcquireAoc
                0x0000000000000000       0x20 aoc_functions.o
 .text.InitAocFunctionPointers
                0x0000000000000000      0x17c aoc_functions.o
 .rodata.InitAcquireAoc.str1.4
                0x0000000000000000        0xb aoc_functions.o
 .rodata.InitAocFunctionPointers.str1.4
                0x0000000000000000       0x94 aoc_functions.o
 .comment       0x0000000000000000       0x23 aoc_functions.o
 .text          0x0000000000000000        0x0 os_functions.o
 .bss           0x0000000000000000        0x0 os_functions.o
 .text.InitAcquireOS
                0x0000000000000000       0x34 os_functions.o
 .comment       0x0000000000000000       0x23 os_functions.o
 .text          0x0000000000000000        0x0 acp_functions.o
 .data          0x0000000000000000        0x8 acp_functions.o
 .bss           0x0000000000000000        0x0 acp_functions.o
 .text.InitAcquireACP
                0x0000000000000000       0x20 acp_functions.o
 .text.InitACPFunctionPointers
                0x0000000000000000       0x70 acp_functions.o
 .rodata.InitACPFunctionPointers.str1.4
                0x0000000000000000       0x26 acp_functions.o
 .rodata.InitAcquireACP.str1.4
                0x0000000000000000        0xb acp_functions.o
 .comment       0x0000000000000000       0x23 acp_functions.o
 .text          0x0000000000000000        0x0 vpad_functions.o
 .bss           0x0000000000000000        0x0 vpad_functions.o
 .text.InitAcquireVPad
                0x0000000000000000       0x64 vpad_functions.o
 .comment       0x0000000000000000       0x23 vpad_functions.o
 .text          0x0000000000000000        0x0 gx2_functions.o
 .data          0x0000000000000000      0x108 gx2_functions.o
 .bss           0x0000000000000000        0x0 gx2_functions.o
 .text.InitAcquireGX2
                0x0000000000000000       0x20 gx2_functions.o
 .text.InitGX2FunctionPointers
                0x0000000000000000     0x16f0 gx2_functions.o
 .rodata.InitAcquireGX2.str1.4
                0x0000000000000000        0x8 gx2_functions.o
 .rodata.InitGX2FunctionPointers.str1.4
                0x0000000000000000      0xe75 gx2_functions.o
 .comment       0x0000000000000000       0x23 gx2_functions.o
 .text          0x0000000000000000        0x0 ax_functions.o
 .bss           0x0000000000000000        0x0 ax_functions.o
 .text.ProperlyEndTransitionAudio
                0x0000000000000000      0x180 ax_functions.o
 .rodata.ProperlyEndTransitionAudio.str1.4
                0x0000000000000000       0x50 ax_functions.o
 .comment       0x0000000000000000       0x23 ax_functions.o
 .text          0x0000000000000000        0x0 syshid_functions.o
 .data          0x0000000000000000       0x38 syshid_functions.o
 .bss           0x0000000000000000        0x0 syshid_functions.o
 .text.InitAcquireSysHID
                0x0000000000000000       0x20 syshid_functions.o
 .text.InitSysHIDFunctionPointers
                0x0000000000000000      0x50c syshid_functions.o
 .rodata.InitAcquireSysHID.str1.4
                0x0000000000000000        0xc syshid_functions.o
 .rodata.InitSysHIDFunctionPointers.str1.4
                0x0000000000000000      0x256 syshid_functions.o
 .comment       0x0000000000000000       0x23 syshid_functions.o
 .text          0x0000000000000000        0x0 sys_functions.o
 .data          0x0000000000000000       0x18 sys_functions.o
 .bss           0x0000000000000000        0x0 sys_functions.o
 .text.InitAcquireSys
                0x0000000000000000       0x20 sys_functions.o
 .text.InitSysFunctionPointers
                0x0000000000000000      0x250 sys_functions.o
 .rodata.InitAcquireSys.str1.4
                0x0000000000000000        0xb sys_functions.o
 .rodata.InitSysFunctionPointers.str1.4
                0x0000000000000000      0x12c sys_functions.o
 .comment       0x0000000000000000       0x23 sys_functions.o
 .text          0x0000000000000000        0x0 curl_functions.o
 .data          0x0000000000000000       0x1c curl_functions.o
 .bss           0x0000000000000000        0x0 curl_functions.o
 .text.InitAcquireCurl
                0x0000000000000000       0x20 curl_functions.o
 .text.InitCurlFunctionPointers
                0x0000000000000000      0x2b8 curl_functions.o
 .rodata.InitAcquireCurl.str1.4
                0x0000000000000000        0x9 curl_functions.o
 .rodata.InitCurlFunctionPointers.str1.4
                0x0000000000000000      0x147 curl_functions.o
 .comment       0x0000000000000000       0x23 curl_functions.o
 .text          0x0000000000000000        0x0 fs_functions.o
 .bss           0x0000000000000000        0x0 fs_functions.o
 .comment       0x0000000000000000       0x23 fs_functions.o
 .text          0x0000000000000000        0x0 socket_functions.o
 .bss           0x0000000000000000        0x0 socket_functions.o
 .text.InitAcquireSocket
                0x0000000000000000       0x20 socket_functions.o
 .sbss.hostIpAddress
                0x0000000000000000        0x4 socket_functions.o
 .comment       0x0000000000000000       0x23 socket_functions.o
 .text          0x0000000000000000        0x0 padscore_functions.o
 .data          0x0000000000000000       0x28 padscore_functions.o
 .bss           0x0000000000000000        0x0 padscore_functions.o
 .text.InitAcquirePadScore
                0x0000000000000000       0x20 padscore_functions.o
 .text.InitPadScoreFunctionPointers
                0x0000000000000000      0x3a8 padscore_functions.o
 .rodata.InitAcquirePadScore.str1.4
                0x0000000000000000        0xd padscore_functions.o
 .rodata.InitPadScoreFunctionPointers.str1.4
                0x0000000000000000      0x1a0 padscore_functions.o
 .comment       0x0000000000000000       0x23 padscore_functions.o
 .text          0x0000000000000000        0x0 sd_fat_devoptab.o
 .data          0x0000000000000000        0x0 sd_fat_devoptab.o
 .bss           0x0000000000000000        0x0 sd_fat_devoptab.o
 .comment       0x0000000000000000       0x23 sd_fat_devoptab.o
 .text          0x0000000000000000        0x0 fs_utils.o
 .data          0x0000000000000000        0x0 fs_utils.o
 .bss           0x0000000000000000        0x0 fs_utils.o
 .text.LoadFileToMem
                0x0000000000000000      0x16c fs_utils.o
 .text.CheckFile
                0x0000000000000000      0x108 fs_utils.o
 .text.CreateSubfolder
                0x0000000000000000      0x27c fs_utils.o
 .rodata.CheckFile.str1.4
                0x0000000000000000        0x3 fs_utils.o
 .comment       0x0000000000000000       0x23 fs_utils.o
 .text          0x0000000000000000        0x0 memory.o
 .data          0x0000000000000000        0x0 memory.o
 .bss           0x0000000000000000        0x0 memory.o
 .text.__wrap_malloc_usable_size
                0x0000000000000000        0xc memory.o
 .text.__wrap_realloc
                0x0000000000000000       0x9c memory.o
 .text.__wrap__memalign_r
                0x0000000000000000       0x24 memory.o
 .text.__wrap__malloc_usable_size_r
                0x0000000000000000        0xc memory.o
 .text.MEM2_alloc
                0x0000000000000000       0x20 memory.o
 .text.MEM2_free
                0x0000000000000000       0x1c memory.o
 .text.MEMBucket_alloc
                0x0000000000000000       0x2c memory.o
 .text.MEMBucket_free
                0x0000000000000000       0x1c memory.o
 .comment       0x0000000000000000       0x23 memory.o
 .text          0x0000000000000000        0x0 logger.o
 .data          0x0000000000000000        0x0 logger.o
 .bss           0x0000000000000000        0x0 logger.o
 .comment       0x0000000000000000       0x23 logger.o
 .text          0x0000000000000000        0x0 /opt/devkitpro/devkitPPC/lib/gcc/powerpc-eabi/6.2.0/../../../../powerpc-eabi/lib/libm.a(lib_a-s_sin.o)
 .data          0x0000000000000000        0x0 /opt/devkitpro/devkitPPC/lib/gcc/powerpc-eabi/6.2.0/../../../../powerpc-eabi/lib/libm.a(lib_a-s_sin.o)
 .bss           0x0000000000000000        0x0 /opt/devkitpro/devkitPPC/lib/gcc/powerpc-eabi/6.2.0/../../../../powerpc-eabi/lib/libm.a(lib_a-s_sin.o)
 .comment       0x0000000000000000       0x23 /opt/devkitpro/devkitPPC/lib/gcc/powerpc-eabi/6.2.0/../../../../powerpc-eabi/lib/libm.a(lib_a-s_sin.o)
 .gnu.attributes
                0x0000000000000000       0x10 /opt/devkitpro/devkitPPC/lib/gcc/powerpc-eabi/6.2.0/../../../../powerpc-eabi/lib/libm.a(lib_a-s_sin.o)
 .text          0x0000000000000000        0x0 /opt/devkitpro/devkitPPC/lib/gcc/powerpc-eabi/6.2.0/../../../../powerpc-eabi/lib/libm.a(lib_a-s_sine.o)
 .data          0x0000000000000000        0x0 /opt/devkitpro/devkitPPC/lib/gcc/powerpc-eabi/6.2.0/../../../../powerpc-eabi/lib/libm.a(lib_a-s_sine.o)
 .bss           0x0000000000000000        0x0 /opt/devkitpro/devkitPPC/lib/gcc/powerpc-eabi/6.2.0/../../../../powerpc-eabi/lib/libm.a(lib_a-s_sine.o)
 .comment       0x0000000000000000       0x23 /opt/devkitpro/devkitPPC/lib/gcc/powerpc-eabi/6.2.0/../../../../powerpc-eabi/lib/libm.a(lib_a-s_sine.o)
 .gnu.attributes
                0x0000000000000000       0x10 /opt/devkitpro/devkitPPC/lib/gcc/powerpc-eabi/6.2.0/../../../../powerpc-eabi/lib/libm.a(lib_a-s_sine.o)
 .text          0x0000000000000000        0x0 /opt/devkitpro/devkitPPC/lib/gcc/powerpc-eabi/6.2.0/../../../../powerpc-eabi/lib/libm.a(lib_a-s_fabs.o)
 .data          0x0000000000000000        0x0 /opt/devkitpro/devkitPPC/lib/gcc/powerpc-eabi/6.2.0/../../../../powerpc-eabi/lib/libm.a(lib_a-s_fabs.o)
 .bss           0x0000000000000000        0x0 /opt/devkitpro/devkitPPC/lib/gcc/powerpc-eabi/6.2.0/../../../../powerpc-eabi/lib/libm.a(lib_a-s_fabs.o)
 .comment       0x0000000000000000       0x23 /opt/devkitpro/devkitPPC/lib/gcc/powerpc-eabi/6.2.0/../../../../powerpc-eabi/lib/libm.a(lib_a-s_fabs.o)
 .gnu.attributes
                0x0000000000000000       0x10 /opt/devkitpro/devkitPPC/lib/gcc/powerpc-eabi/6.2.0/../../../../powerpc-eabi/lib/libm.a(lib_a-s_fabs.o)
 .text          0x0000000000000000        0x0 /opt/devkitpro/devkitPPC/lib/gcc/powerpc-eabi/6.2.0/../../../../powerpc-eabi/lib/libm.a(lib_a-s_mathcnst.o)
 .data          0x0000000000000000        0x0 /opt/devkitpro/devkitPPC/lib/gcc/powerpc-eabi/6.2.0/../../../../powerpc-eabi/lib/libm.a(lib_a-s_mathcnst.o)
 .bss           0x0000000000000000        0x0 /opt/devkitpro/devkitPPC/lib/gcc/powerpc-eabi/6.2.0/../../../../powerpc-eabi/lib/libm.a(lib_a-s_mathcnst.o)
 .sdata.BIGX    0x0000000000000000        0x8 /opt/devkitpro/devkitPPC/lib/gcc/powerpc-eabi/6.2.0/../../../../powerpc-eabi/lib/libm.a(lib_a-s_mathcnst.o)
 .sdata.SMALLX  0x0000000000000000        0x8 /opt/devkitpro/devkitPPC/lib/gcc/powerpc-eabi/6.2.0/../../../../powerpc-eabi/lib/libm.a(lib_a-s_mathcnst.o)
 .sdata.z_hugeval
                0x0000000000000000        0x8 /opt/devkitpro/devkitPPC/lib/gcc/powerpc-eabi/6.2.0/../../../../powerpc-eabi/lib/libm.a(lib_a-s_mathcnst.o)
 .sdata.z_hugeval_f
                0x0000000000000000        0x4 /opt/devkitpro/devkitPPC/lib/gcc/powerpc-eabi/6.2.0/../../../../powerpc-eabi/lib/libm.a(lib_a-s_mathcnst.o)
 .sdata.z_infinity
                0x0000000000000000        0x8 /opt/devkitpro/devkitPPC/lib/gcc/powerpc-eabi/6.2.0/../../../../powerpc-eabi/lib/libm.a(lib_a-s_mathcnst.o)
 .sdata.z_infinity_f
                0x0000000000000000        0x4 /opt/devkitpro/devkitPPC/lib/gcc/powerpc-eabi/6.2.0/../../../../powerpc-eabi/lib/libm.a(lib_a-s_mathcnst.o)
 .sdata.z_notanum_f
                0x0000000000000000        0x4 /opt/devkitpro/devkitPPC/lib/gcc/powerpc-eabi/6.2.0/../../../../powerpc-eabi/lib/libm.a(lib_a-s_mathcnst.o)
 .sdata.z_rooteps_f
                0x0000000000000000        0x4 /opt/devkitpro/devkitPPC/lib/gcc/powerpc-eabi/6.2.0/../../../../powerpc-eabi/lib/libm.a(lib_a-s_mathcnst.o)
 .comment       0x0000000000000000       0x23 /opt/devkitpro/devkitPPC/lib/gcc/powerpc-eabi/6.2.0/../../../../powerpc-eabi/lib/libm.a(lib_a-s_mathcnst.o)
 .text          0x0000000000000000        0x0 /opt/devkitpro/devkitPPC/lib/gcc/powerpc-eabi/6.2.0/../../../../powerpc-eabi/lib/libm.a(lib_a-s_numtest.o)
 .data          0x0000000000000000        0x0 /opt/devkitpro/devkitPPC/lib/gcc/powerpc-eabi/6.2.0/../../../../powerpc-eabi/lib/libm.a(lib_a-s_numtest.o)
 .bss           0x0000000000000000        0x0 /opt/devkitpro/devkitPPC/lib/gcc/powerpc-eabi/6.2.0/../../../../powerpc-eabi/lib/libm.a(lib_a-s_numtest.o)
 .comment       0x0000000000000000       0x23 /opt/devkitpro/devkitPPC/lib/gcc/powerpc-eabi/6.2.0/../../../../powerpc-eabi/lib/libm.a(lib_a-s_numtest.o)
 .gnu.attributes
                0x0000000000000000       0x10 /opt/devkitpro/devkitPPC/lib/gcc/powerpc-eabi/6.2.0/../../../../powerpc-eabi/lib/libm.a(lib_a-s_numtest.o)
 .data          0x0000000000000000        0x0 /opt/devkitpro/devkitPPC/lib/gcc/powerpc-eabi/6.2.0/libgcc.a(_divdi3.o)
 .bss           0x0000000000000000        0x0 /opt/devkitpro/devkitPPC/lib/gcc/powerpc-eabi/6.2.0/libgcc.a(_divdi3.o)
 .comment       0x0000000000000000       0x23 /opt/devkitpro/devkitPPC/lib/gcc/powerpc-eabi/6.2.0/libgcc.a(_divdi3.o)
 .eh_frame      0x0000000000000000       0x3c /opt/devkitpro/devkitPPC/lib/gcc/powerpc-eabi/6.2.0/libgcc.a(_divdi3.o)
 .data          0x0000000000000000        0x0 /opt/devkitpro/devkitPPC/lib/gcc/powerpc-eabi/6.2.0/libgcc.a(_moddi3.o)
 .bss           0x0000000000000000        0x0 /opt/devkitpro/devkitPPC/lib/gcc/powerpc-eabi/6.2.0/libgcc.a(_moddi3.o)
 .comment       0x0000000000000000       0x23 /opt/devkitpro/devkitPPC/lib/gcc/powerpc-eabi/6.2.0/libgcc.a(_moddi3.o)
 .eh_frame      0x0000000000000000       0x40 /opt/devkitpro/devkitPPC/lib/gcc/powerpc-eabi/6.2.0/libgcc.a(_moddi3.o)
 .data          0x0000000000000000        0x0 /opt/devkitpro/devkitPPC/lib/gcc/powerpc-eabi/6.2.0/libgcc.a(_udivdi3.o)
 .bss           0x0000000000000000        0x0 /opt/devkitpro/devkitPPC/lib/gcc/powerpc-eabi/6.2.0/libgcc.a(_udivdi3.o)
 .comment       0x0000000000000000       0x23 /opt/devkitpro/devkitPPC/lib/gcc/powerpc-eabi/6.2.0/libgcc.a(_udivdi3.o)
 .eh_frame      0x0000000000000000       0x50 /opt/devkitpro/devkitPPC/lib/gcc/powerpc-eabi/6.2.0/libgcc.a(_udivdi3.o)
 .text          0x0000000000000000      0x2e0 /opt/devkitpro/devkitPPC/lib/gcc/powerpc-eabi/6.2.0/../../../../powerpc-eabi/lib/libsysbase.a(iosupport.o)
 .bss           0x0000000000000000        0x0 /opt/devkitpro/devkitPPC/lib/gcc/powerpc-eabi/6.2.0/../../../../powerpc-eabi/lib/libsysbase.a(iosupport.o)
 .comment       0x0000000000000000       0x23 /opt/devkitpro/devkitPPC/lib/gcc/powerpc-eabi/6.2.0/../../../../powerpc-eabi/lib/libsysbase.a(iosupport.o)
 .text          0x0000000000000000       0x9c /opt/devkitpro/devkitPPC/lib/gcc/powerpc-eabi/6.2.0/../../../../powerpc-eabi/lib/libsysbase.a(mkdir.o)
 .data          0x0000000000000000        0x0 /opt/devkitpro/devkitPPC/lib/gcc/powerpc-eabi/6.2.0/../../../../powerpc-eabi/lib/libsysbase.a(mkdir.o)
 .bss           0x0000000000000000        0x0 /opt/devkitpro/devkitPPC/lib/gcc/powerpc-eabi/6.2.0/../../../../powerpc-eabi/lib/libsysbase.a(mkdir.o)
 .comment       0x0000000000000000       0x23 /opt/devkitpro/devkitPPC/lib/gcc/powerpc-eabi/6.2.0/../../../../powerpc-eabi/lib/libsysbase.a(mkdir.o)
 .text          0x0000000000000000        0x0 /opt/devkitpro/devkitPPC/lib/gcc/powerpc-eabi/6.2.0/../../../../powerpc-eabi/lib/libc.a(lib_a-errno.o)
 .data          0x0000000000000000        0x0 /opt/devkitpro/devkitPPC/lib/gcc/powerpc-eabi/6.2.0/../../../../powerpc-eabi/lib/libc.a(lib_a-errno.o)
 .bss           0x0000000000000000        0x0 /opt/devkitpro/devkitPPC/lib/gcc/powerpc-eabi/6.2.0/../../../../powerpc-eabi/lib/libc.a(lib_a-errno.o)
 .comment       0x0000000000000000       0x23 /opt/devkitpro/devkitPPC/lib/gcc/powerpc-eabi/6.2.0/../../../../powerpc-eabi/lib/libc.a(lib_a-errno.o)
 .text          0x0000000000000000        0x0 /opt/devkitpro/devkitPPC/lib/gcc/powerpc-eabi/6.2.0/../../../../powerpc-eabi/lib/libc.a(lib_a-impure.o)
 .data          0x0000000000000000        0x0 /opt/devkitpro/devkitPPC/lib/gcc/powerpc-eabi/6.2.0/../../../../powerpc-eabi/lib/libc.a(lib_a-impure.o)
 .bss           0x0000000000000000        0x0 /opt/devkitpro/devkitPPC/lib/gcc/powerpc-eabi/6.2.0/../../../../powerpc-eabi/lib/libc.a(lib_a-impure.o)
 .comment       0x0000000000000000       0x23 /opt/devkitpro/devkitPPC/lib/gcc/powerpc-eabi/6.2.0/../../../../powerpc-eabi/lib/libc.a(lib_a-impure.o)
 .text          0x0000000000000000        0x0 /opt/devkitpro/devkitPPC/lib/gcc/powerpc-eabi/6.2.0/../../../../powerpc-eabi/lib/libc.a(lib_a-memcpy.o)
 .data          0x0000000000000000        0x0 /opt/devkitpro/devkitPPC/lib/gcc/powerpc-eabi/6.2.0/../../../../powerpc-eabi/lib/libc.a(lib_a-memcpy.o)
 .bss           0x0000000000000000        0x0 /opt/devkitpro/devkitPPC/lib/gcc/powerpc-eabi/6.2.0/../../../../powerpc-eabi/lib/libc.a(lib_a-memcpy.o)
 .comment       0x0000000000000000       0x23 /opt/devkitpro/devkitPPC/lib/gcc/powerpc-eabi/6.2.0/../../../../powerpc-eabi/lib/libc.a(lib_a-memcpy.o)
 .text          0x0000000000000000        0x0 /opt/devkitpro/devkitPPC/lib/gcc/powerpc-eabi/6.2.0/../../../../powerpc-eabi/lib/libc.a(lib_a-memset.o)
 .data          0x0000000000000000        0x0 /opt/devkitpro/devkitPPC/lib/gcc/powerpc-eabi/6.2.0/../../../../powerpc-eabi/lib/libc.a(lib_a-memset.o)
 .bss           0x0000000000000000        0x0 /opt/devkitpro/devkitPPC/lib/gcc/powerpc-eabi/6.2.0/../../../../powerpc-eabi/lib/libc.a(lib_a-memset.o)
 .comment       0x0000000000000000       0x23 /opt/devkitpro/devkitPPC/lib/gcc/powerpc-eabi/6.2.0/../../../../powerpc-eabi/lib/libc.a(lib_a-memset.o)
 .text          0x0000000000000000        0x0 /opt/devkitpro/devkitPPC/lib/gcc/powerpc-eabi/6.2.0/../../../../powerpc-eabi/lib/libc.a(lib_a-snprintf.o)
 .data          0x0000000000000000        0x0 /opt/devkitpro/devkitPPC/lib/gcc/powerpc-eabi/6.2.0/../../../../powerpc-eabi/lib/libc.a(lib_a-snprintf.o)
 .bss           0x0000000000000000        0x0 /opt/devkitpro/devkitPPC/lib/gcc/powerpc-eabi/6.2.0/../../../../powerpc-eabi/lib/libc.a(lib_a-snprintf.o)
 .text._snprintf_r
                0x0000000000000000      0x15c /opt/devkitpro/devkitPPC/lib/gcc/powerpc-eabi/6.2.0/../../../../powerpc-eabi/lib/libc.a(lib_a-snprintf.o)
 .comment       0x0000000000000000       0x23 /opt/devkitpro/devkitPPC/lib/gcc/powerpc-eabi/6.2.0/../../../../powerpc-eabi/lib/libc.a(lib_a-snprintf.o)
 .gnu.attributes
                0x0000000000000000       0x10 /opt/devkitpro/devkitPPC/lib/gcc/powerpc-eabi/6.2.0/../../../../powerpc-eabi/lib/libc.a(lib_a-snprintf.o)
 .text          0x0000000000000000        0x0 /opt/devkitpro/devkitPPC/lib/gcc/powerpc-eabi/6.2.0/../../../../powerpc-eabi/lib/libc.a(lib_a-strchr.o)
 .data          0x0000000000000000        0x0 /opt/devkitpro/devkitPPC/lib/gcc/powerpc-eabi/6.2.0/../../../../powerpc-eabi/lib/libc.a(lib_a-strchr.o)
 .bss           0x0000000000000000        0x0 /opt/devkitpro/devkitPPC/lib/gcc/powerpc-eabi/6.2.0/../../../../powerpc-eabi/lib/libc.a(lib_a-strchr.o)
 .comment       0x0000000000000000       0x23 /opt/devkitpro/devkitPPC/lib/gcc/powerpc-eabi/6.2.0/../../../../powerpc-eabi/lib/libc.a(lib_a-strchr.o)
 .text          0x0000000000000000        0x0 /opt/devkitpro/devkitPPC/lib/gcc/powerpc-eabi/6.2.0/../../../../powerpc-eabi/lib/libc.a(lib_a-strcmp.o)
 .data          0x0000000000000000        0x0 /opt/devkitpro/devkitPPC/lib/gcc/powerpc-eabi/6.2.0/../../../../powerpc-eabi/lib/libc.a(lib_a-strcmp.o)
 .bss           0x0000000000000000        0x0 /opt/devkitpro/devkitPPC/lib/gcc/powerpc-eabi/6.2.0/../../../../powerpc-eabi/lib/libc.a(lib_a-strcmp.o)
 .comment       0x0000000000000000       0x23 /opt/devkitpro/devkitPPC/lib/gcc/powerpc-eabi/6.2.0/../../../../powerpc-eabi/lib/libc.a(lib_a-strcmp.o)
 .text          0x0000000000000000        0x0 /opt/devkitpro/devkitPPC/lib/gcc/powerpc-eabi/6.2.0/../../../../powerpc-eabi/lib/libc.a(lib_a-strcpy.o)
 .data          0x0000000000000000        0x0 /opt/devkitpro/devkitPPC/lib/gcc/powerpc-eabi/6.2.0/../../../../powerpc-eabi/lib/libc.a(lib_a-strcpy.o)
 .bss           0x0000000000000000        0x0 /opt/devkitpro/devkitPPC/lib/gcc/powerpc-eabi/6.2.0/../../../../powerpc-eabi/lib/libc.a(lib_a-strcpy.o)
 .comment       0x0000000000000000       0x23 /opt/devkitpro/devkitPPC/lib/gcc/powerpc-eabi/6.2.0/../../../../powerpc-eabi/lib/libc.a(lib_a-strcpy.o)
 .text          0x0000000000000000        0x0 /opt/devkitpro/devkitPPC/lib/gcc/powerpc-eabi/6.2.0/../../../../powerpc-eabi/lib/libc.a(lib_a-strlen.o)
 .data          0x0000000000000000        0x0 /opt/devkitpro/devkitPPC/lib/gcc/powerpc-eabi/6.2.0/../../../../powerpc-eabi/lib/libc.a(lib_a-strlen.o)
 .bss           0x0000000000000000        0x0 /opt/devkitpro/devkitPPC/lib/gcc/powerpc-eabi/6.2.0/../../../../powerpc-eabi/lib/libc.a(lib_a-strlen.o)
 .comment       0x0000000000000000       0x23 /opt/devkitpro/devkitPPC/lib/gcc/powerpc-eabi/6.2.0/../../../../powerpc-eabi/lib/libc.a(lib_a-strlen.o)
 .text          0x0000000000000000        0x0 /opt/devkitpro/devkitPPC/lib/gcc/powerpc-eabi/6.2.0/../../../../powerpc-eabi/lib/libc.a(lib_a-strncmp.o)
 .data          0x0000000000000000        0x0 /opt/devkitpro/devkitPPC/lib/gcc/powerpc-eabi/6.2.0/../../../../powerpc-eabi/lib/libc.a(lib_a-strncmp.o)
 .bss           0x0000000000000000        0x0 /opt/devkitpro/devkitPPC/lib/gcc/powerpc-eabi/6.2.0/../../../../powerpc-eabi/lib/libc.a(lib_a-strncmp.o)
 .text.strncmp  0x0000000000000000      0x104 /opt/devkitpro/devkitPPC/lib/gcc/powerpc-eabi/6.2.0/../../../../powerpc-eabi/lib/libc.a(lib_a-strncmp.o)
 .comment       0x0000000000000000       0x23 /opt/devkitpro/devkitPPC/lib/gcc/powerpc-eabi/6.2.0/../../../../powerpc-eabi/lib/libc.a(lib_a-strncmp.o)
 .text          0x0000000000000000        0x0 /opt/devkitpro/devkitPPC/lib/gcc/powerpc-eabi/6.2.0/../../../../powerpc-eabi/lib/libc.a(lib_a-strncpy.o)
 .data          0x0000000000000000        0x0 /opt/devkitpro/devkitPPC/lib/gcc/powerpc-eabi/6.2.0/../../../../powerpc-eabi/lib/libc.a(lib_a-strncpy.o)
 .bss           0x0000000000000000        0x0 /opt/devkitpro/devkitPPC/lib/gcc/powerpc-eabi/6.2.0/../../../../powerpc-eabi/lib/libc.a(lib_a-strncpy.o)
 .comment       0x0000000000000000       0x23 /opt/devkitpro/devkitPPC/lib/gcc/powerpc-eabi/6.2.0/../../../../powerpc-eabi/lib/libc.a(lib_a-strncpy.o)
 .text          0x0000000000000000        0x0 /opt/devkitpro/devkitPPC/lib/gcc/powerpc-eabi/6.2.0/../../../../powerpc-eabi/lib/libc.a(lib_a-strrchr.o)
 .data          0x0000000000000000        0x0 /opt/devkitpro/devkitPPC/lib/gcc/powerpc-eabi/6.2.0/../../../../powerpc-eabi/lib/libc.a(lib_a-strrchr.o)
 .bss           0x0000000000000000        0x0 /opt/devkitpro/devkitPPC/lib/gcc/powerpc-eabi/6.2.0/../../../../powerpc-eabi/lib/libc.a(lib_a-strrchr.o)
 .text.strrchr  0x0000000000000000       0x78 /opt/devkitpro/devkitPPC/lib/gcc/powerpc-eabi/6.2.0/../../../../powerpc-eabi/lib/libc.a(lib_a-strrchr.o)
 .comment       0x0000000000000000       0x23 /opt/devkitpro/devkitPPC/lib/gcc/powerpc-eabi/6.2.0/../../../../powerpc-eabi/lib/libc.a(lib_a-strrchr.o)
 .text          0x0000000000000000        0x0 /opt/devkitpro/devkitPPC/lib/gcc/powerpc-eabi/6.2.0/../../../../powerpc-eabi/lib/libc.a(lib_a-strtok.o)
 .data          0x0000000000000000        0x0 /opt/devkitpro/devkitPPC/lib/gcc/powerpc-eabi/6.2.0/../../../../powerpc-eabi/lib/libc.a(lib_a-strtok.o)
 .bss           0x0000000000000000        0x0 /opt/devkitpro/devkitPPC/lib/gcc/powerpc-eabi/6.2.0/../../../../powerpc-eabi/lib/libc.a(lib_a-strtok.o)
 .comment       0x0000000000000000       0x23 /opt/devkitpro/devkitPPC/lib/gcc/powerpc-eabi/6.2.0/../../../../powerpc-eabi/lib/libc.a(lib_a-strtok.o)
 .text          0x0000000000000000        0x0 /opt/devkitpro/devkitPPC/lib/gcc/powerpc-eabi/6.2.0/../../../../powerpc-eabi/lib/libc.a(lib_a-strtok_r.o)
 .data          0x0000000000000000        0x0 /opt/devkitpro/devkitPPC/lib/gcc/powerpc-eabi/6.2.0/../../../../powerpc-eabi/lib/libc.a(lib_a-strtok_r.o)
 .bss           0x0000000000000000        0x0 /opt/devkitpro/devkitPPC/lib/gcc/powerpc-eabi/6.2.0/../../../../powerpc-eabi/lib/libc.a(lib_a-strtok_r.o)
 .text.strtok_r
                0x0000000000000000        0x8 /opt/devkitpro/devkitPPC/lib/gcc/powerpc-eabi/6.2.0/../../../../powerpc-eabi/lib/libc.a(lib_a-strtok_r.o)
 .comment       0x0000000000000000       0x23 /opt/devkitpro/devkitPPC/lib/gcc/powerpc-eabi/6.2.0/../../../../powerpc-eabi/lib/libc.a(lib_a-strtok_r.o)
 .text          0x0000000000000000        0x0 /opt/devkitpro/devkitPPC/lib/gcc/powerpc-eabi/6.2.0/../../../../powerpc-eabi/lib/libc.a(lib_a-svfprintf.o)
 .data          0x0000000000000000        0x0 /opt/devkitpro/devkitPPC/lib/gcc/powerpc-eabi/6.2.0/../../../../powerpc-eabi/lib/libc.a(lib_a-svfprintf.o)
 .bss           0x0000000000000000        0x0 /opt/devkitpro/devkitPPC/lib/gcc/powerpc-eabi/6.2.0/../../../../powerpc-eabi/lib/libc.a(lib_a-svfprintf.o)
 .comment       0x0000000000000000       0x23 /opt/devkitpro/devkitPPC/lib/gcc/powerpc-eabi/6.2.0/../../../../powerpc-eabi/lib/libc.a(lib_a-svfprintf.o)
 .gnu.attributes
                0x0000000000000000       0x10 /opt/devkitpro/devkitPPC/lib/gcc/powerpc-eabi/6.2.0/../../../../powerpc-eabi/lib/libc.a(lib_a-svfprintf.o)
 .text          0x0000000000000000        0x0 /opt/devkitpro/devkitPPC/lib/gcc/powerpc-eabi/6.2.0/../../../../powerpc-eabi/lib/libc.a(lib_a-sysclose.o)
 .data          0x0000000000000000        0x0 /opt/devkitpro/devkitPPC/lib/gcc/powerpc-eabi/6.2.0/../../../../powerpc-eabi/lib/libc.a(lib_a-sysclose.o)
 .bss           0x0000000000000000        0x0 /opt/devkitpro/devkitPPC/lib/gcc/powerpc-eabi/6.2.0/../../../../powerpc-eabi/lib/libc.a(lib_a-sysclose.o)
 .text.close    0x0000000000000000       0x10 /opt/devkitpro/devkitPPC/lib/gcc/powerpc-eabi/6.2.0/../../../../powerpc-eabi/lib/libc.a(lib_a-sysclose.o)
 .comment       0x0000000000000000       0x23 /opt/devkitpro/devkitPPC/lib/gcc/powerpc-eabi/6.2.0/../../../../powerpc-eabi/lib/libc.a(lib_a-sysclose.o)
 .text          0x0000000000000000        0x0 /opt/devkitpro/devkitPPC/lib/gcc/powerpc-eabi/6.2.0/../../../../powerpc-eabi/lib/libc.a(lib_a-syslseek.o)
 .data          0x0000000000000000        0x0 /opt/devkitpro/devkitPPC/lib/gcc/powerpc-eabi/6.2.0/../../../../powerpc-eabi/lib/libc.a(lib_a-syslseek.o)
 .bss           0x0000000000000000        0x0 /opt/devkitpro/devkitPPC/lib/gcc/powerpc-eabi/6.2.0/../../../../powerpc-eabi/lib/libc.a(lib_a-syslseek.o)
 .text.lseek    0x0000000000000000       0x10 /opt/devkitpro/devkitPPC/lib/gcc/powerpc-eabi/6.2.0/../../../../powerpc-eabi/lib/libc.a(lib_a-syslseek.o)
 .comment       0x0000000000000000       0x23 /opt/devkitpro/devkitPPC/lib/gcc/powerpc-eabi/6.2.0/../../../../powerpc-eabi/lib/libc.a(lib_a-syslseek.o)
 .text          0x0000000000000000        0x0 /opt/devkitpro/devkitPPC/lib/gcc/powerpc-eabi/6.2.0/../../../../powerpc-eabi/lib/libc.a(lib_a-sysopen.o)
 .data          0x0000000000000000        0x0 /opt/devkitpro/devkitPPC/lib/gcc/powerpc-eabi/6.2.0/../../../../powerpc-eabi/lib/libc.a(lib_a-sysopen.o)
 .bss           0x0000000000000000        0x0 /opt/devkitpro/devkitPPC/lib/gcc/powerpc-eabi/6.2.0/../../../../powerpc-eabi/lib/libc.a(lib_a-sysopen.o)
 .text.open     0x0000000000000000       0x50 /opt/devkitpro/devkitPPC/lib/gcc/powerpc-eabi/6.2.0/../../../../powerpc-eabi/lib/libc.a(lib_a-sysopen.o)
 .comment       0x0000000000000000       0x23 /opt/devkitpro/devkitPPC/lib/gcc/powerpc-eabi/6.2.0/../../../../powerpc-eabi/lib/libc.a(lib_a-sysopen.o)
 .text          0x0000000000000000        0x0 /opt/devkitpro/devkitPPC/lib/gcc/powerpc-eabi/6.2.0/../../../../powerpc-eabi/lib/libc.a(lib_a-sysread.o)
 .data          0x0000000000000000        0x0 /opt/devkitpro/devkitPPC/lib/gcc/powerpc-eabi/6.2.0/../../../../powerpc-eabi/lib/libc.a(lib_a-sysread.o)
 .bss           0x0000000000000000        0x0 /opt/devkitpro/devkitPPC/lib/gcc/powerpc-eabi/6.2.0/../../../../powerpc-eabi/lib/libc.a(lib_a-sysread.o)
 .text.read     0x0000000000000000       0x18 /opt/devkitpro/devkitPPC/lib/gcc/powerpc-eabi/6.2.0/../../../../powerpc-eabi/lib/libc.a(lib_a-sysread.o)
 .comment       0x0000000000000000       0x23 /opt/devkitpro/devkitPPC/lib/gcc/powerpc-eabi/6.2.0/../../../../powerpc-eabi/lib/libc.a(lib_a-sysread.o)
 .text          0x0000000000000000        0x0 /opt/devkitpro/devkitPPC/lib/gcc/powerpc-eabi/6.2.0/../../../../powerpc-eabi/lib/libc.a(lib_a-sysstat.o)
 .data          0x0000000000000000        0x0 /opt/devkitpro/devkitPPC/lib/gcc/powerpc-eabi/6.2.0/../../../../powerpc-eabi/lib/libc.a(lib_a-sysstat.o)
 .bss           0x0000000000000000        0x0 /opt/devkitpro/devkitPPC/lib/gcc/powerpc-eabi/6.2.0/../../../../powerpc-eabi/lib/libc.a(lib_a-sysstat.o)
 .text.stat     0x0000000000000000       0x14 /opt/devkitpro/devkitPPC/lib/gcc/powerpc-eabi/6.2.0/../../../../powerpc-eabi/lib/libc.a(lib_a-sysstat.o)
 .comment       0x0000000000000000       0x23 /opt/devkitpro/devkitPPC/lib/gcc/powerpc-eabi/6.2.0/../../../../powerpc-eabi/lib/libc.a(lib_a-sysstat.o)
 .text          0x0000000000000000        0x0 /opt/devkitpro/devkitPPC/lib/gcc/powerpc-eabi/6.2.0/../../../../powerpc-eabi/lib/libc.a(lib_a-wcrtomb.o)
 .data          0x0000000000000000        0x0 /opt/devkitpro/devkitPPC/lib/gcc/powerpc-eabi/6.2.0/../../../../powerpc-eabi/lib/libc.a(lib_a-wcrtomb.o)
 .bss           0x0000000000000000        0x0 /opt/devkitpro/devkitPPC/lib/gcc/powerpc-eabi/6.2.0/../../../../powerpc-eabi/lib/libc.a(lib_a-wcrtomb.o)
 .text.wcrtomb  0x0000000000000000       0xe0 /opt/devkitpro/devkitPPC/lib/gcc/powerpc-eabi/6.2.0/../../../../powerpc-eabi/lib/libc.a(lib_a-wcrtomb.o)
 .comment       0x0000000000000000       0x23 /opt/devkitpro/devkitPPC/lib/gcc/powerpc-eabi/6.2.0/../../../../powerpc-eabi/lib/libc.a(lib_a-wcrtomb.o)
 .text          0x0000000000000000        0x0 /opt/devkitpro/devkitPPC/lib/gcc/powerpc-eabi/6.2.0/../../../../powerpc-eabi/lib/libc.a(lib_a-wcsrtombs.o)
 .data          0x0000000000000000        0x0 /opt/devkitpro/devkitPPC/lib/gcc/powerpc-eabi/6.2.0/../../../../powerpc-eabi/lib/libc.a(lib_a-wcsrtombs.o)
 .bss           0x0000000000000000        0x0 /opt/devkitpro/devkitPPC/lib/gcc/powerpc-eabi/6.2.0/../../../../powerpc-eabi/lib/libc.a(lib_a-wcsrtombs.o)
 .text.wcsrtombs
                0x0000000000000000       0x20 /opt/devkitpro/devkitPPC/lib/gcc/powerpc-eabi/6.2.0/../../../../powerpc-eabi/lib/libc.a(lib_a-wcsrtombs.o)
 .comment       0x0000000000000000       0x23 /opt/devkitpro/devkitPPC/lib/gcc/powerpc-eabi/6.2.0/../../../../powerpc-eabi/lib/libc.a(lib_a-wcsrtombs.o)
 .text          0x0000000000000000        0x0 /opt/devkitpro/devkitPPC/lib/gcc/powerpc-eabi/6.2.0/../../../../powerpc-eabi/lib/libc.a(lib_a-wctomb_r.o)
 .data          0x0000000000000000        0x0 /opt/devkitpro/devkitPPC/lib/gcc/powerpc-eabi/6.2.0/../../../../powerpc-eabi/lib/libc.a(lib_a-wctomb_r.o)
 .bss           0x0000000000000000        0x0 /opt/devkitpro/devkitPPC/lib/gcc/powerpc-eabi/6.2.0/../../../../powerpc-eabi/lib/libc.a(lib_a-wctomb_r.o)
 .text._wctomb_r
                0x0000000000000000       0x68 /opt/devkitpro/devkitPPC/lib/gcc/powerpc-eabi/6.2.0/../../../../powerpc-eabi/lib/libc.a(lib_a-wctomb_r.o)
 .text.__ascii_wctomb
                0x0000000000000000       0x34 /opt/devkitpro/devkitPPC/lib/gcc/powerpc-eabi/6.2.0/../../../../powerpc-eabi/lib/libc.a(lib_a-wctomb_r.o)
 .text.__sjis_wctomb
                0x0000000000000000       0x8c /opt/devkitpro/devkitPPC/lib/gcc/powerpc-eabi/6.2.0/../../../../powerpc-eabi/lib/libc.a(lib_a-wctomb_r.o)
 .text.__eucjp_wctomb
                0x0000000000000000       0xb8 /opt/devkitpro/devkitPPC/lib/gcc/powerpc-eabi/6.2.0/../../../../powerpc-eabi/lib/libc.a(lib_a-wctomb_r.o)
 .text.__jis_wctomb
                0x0000000000000000       0xd0 /opt/devkitpro/devkitPPC/lib/gcc/powerpc-eabi/6.2.0/../../../../powerpc-eabi/lib/libc.a(lib_a-wctomb_r.o)
 .comment       0x0000000000000000       0x23 /opt/devkitpro/devkitPPC/lib/gcc/powerpc-eabi/6.2.0/../../../../powerpc-eabi/lib/libc.a(lib_a-wctomb_r.o)
 .text          0x0000000000000000        0x0 /opt/devkitpro/devkitPPC/lib/gcc/powerpc-eabi/6.2.0/../../../../powerpc-eabi/lib/libc.a(lib_a-dtoa.o)
 .data          0x0000000000000000        0x0 /opt/devkitpro/devkitPPC/lib/gcc/powerpc-eabi/6.2.0/../../../../powerpc-eabi/lib/libc.a(lib_a-dtoa.o)
 .bss           0x0000000000000000        0x0 /opt/devkitpro/devkitPPC/lib/gcc/powerpc-eabi/6.2.0/../../../../powerpc-eabi/lib/libc.a(lib_a-dtoa.o)
 .comment       0x0000000000000000       0x23 /opt/devkitpro/devkitPPC/lib/gcc/powerpc-eabi/6.2.0/../../../../powerpc-eabi/lib/libc.a(lib_a-dtoa.o)
 .gnu.attributes
                0x0000000000000000       0x10 /opt/devkitpro/devkitPPC/lib/gcc/powerpc-eabi/6.2.0/../../../../powerpc-eabi/lib/libc.a(lib_a-dtoa.o)
 .text          0x0000000000000000        0x0 /opt/devkitpro/devkitPPC/lib/gcc/powerpc-eabi/6.2.0/../../../../powerpc-eabi/lib/libc.a(lib_a-locale.o)
 .data          0x0000000000000000        0x0 /opt/devkitpro/devkitPPC/lib/gcc/powerpc-eabi/6.2.0/../../../../powerpc-eabi/lib/libc.a(lib_a-locale.o)
 .bss           0x0000000000000000        0x0 /opt/devkitpro/devkitPPC/lib/gcc/powerpc-eabi/6.2.0/../../../../powerpc-eabi/lib/libc.a(lib_a-locale.o)
 .text.__get_locale_env
                0x0000000000000000       0xac /opt/devkitpro/devkitPPC/lib/gcc/powerpc-eabi/6.2.0/../../../../powerpc-eabi/lib/libc.a(lib_a-locale.o)
 .text.loadlocale
                0x0000000000000000      0x840 /opt/devkitpro/devkitPPC/lib/gcc/powerpc-eabi/6.2.0/../../../../powerpc-eabi/lib/libc.a(lib_a-locale.o)
 .rodata.loadlocale
                0x0000000000000000       0xd4 /opt/devkitpro/devkitPPC/lib/gcc/powerpc-eabi/6.2.0/../../../../powerpc-eabi/lib/libc.a(lib_a-locale.o)
 .text.currentlocale
                0x0000000000000000       0xe8 /opt/devkitpro/devkitPPC/lib/gcc/powerpc-eabi/6.2.0/../../../../powerpc-eabi/lib/libc.a(lib_a-locale.o)
 .text._setlocale_r
                0x0000000000000000      0x408 /opt/devkitpro/devkitPPC/lib/gcc/powerpc-eabi/6.2.0/../../../../powerpc-eabi/lib/libc.a(lib_a-locale.o)
 .text.__locale_msgcharset
                0x0000000000000000        0xc /opt/devkitpro/devkitPPC/lib/gcc/powerpc-eabi/6.2.0/../../../../powerpc-eabi/lib/libc.a(lib_a-locale.o)
 .text.__locale_cjk_lang
                0x0000000000000000        0xc /opt/devkitpro/devkitPPC/lib/gcc/powerpc-eabi/6.2.0/../../../../powerpc-eabi/lib/libc.a(lib_a-locale.o)
 .text.setlocale
                0x0000000000000000       0x14 /opt/devkitpro/devkitPPC/lib/gcc/powerpc-eabi/6.2.0/../../../../powerpc-eabi/lib/libc.a(lib_a-locale.o)
 .text.localeconv
                0x0000000000000000        0xc /opt/devkitpro/devkitPPC/lib/gcc/powerpc-eabi/6.2.0/../../../../powerpc-eabi/lib/libc.a(lib_a-locale.o)
 .bss.current_locale_string
                0x0000000000000000       0xe7 /opt/devkitpro/devkitPPC/lib/gcc/powerpc-eabi/6.2.0/../../../../powerpc-eabi/lib/libc.a(lib_a-locale.o)
 .bss.lc_ctype_cjk_lang
                0x0000000000000000        0x4 /opt/devkitpro/devkitPPC/lib/gcc/powerpc-eabi/6.2.0/../../../../powerpc-eabi/lib/libc.a(lib_a-locale.o)
 .bss.new_categories
                0x0000000000000000       0xe0 /opt/devkitpro/devkitPPC/lib/gcc/powerpc-eabi/6.2.0/../../../../powerpc-eabi/lib/libc.a(lib_a-locale.o)
 .bss.saved_categories
                0x0000000000000000       0xe0 /opt/devkitpro/devkitPPC/lib/gcc/powerpc-eabi/6.2.0/../../../../powerpc-eabi/lib/libc.a(lib_a-locale.o)
 .data.__default_locale
                0x0000000000000000       0x20 /opt/devkitpro/devkitPPC/lib/gcc/powerpc-eabi/6.2.0/../../../../powerpc-eabi/lib/libc.a(lib_a-locale.o)
 .data.current_categories
                0x0000000000000000       0xe0 /opt/devkitpro/devkitPPC/lib/gcc/powerpc-eabi/6.2.0/../../../../powerpc-eabi/lib/libc.a(lib_a-locale.o)
 .data.lc_message_charset
                0x0000000000000000       0x20 /opt/devkitpro/devkitPPC/lib/gcc/powerpc-eabi/6.2.0/../../../../powerpc-eabi/lib/libc.a(lib_a-locale.o)
 .rodata.__get_locale_env.str1.4
                0x0000000000000000        0xd /opt/devkitpro/devkitPPC/lib/gcc/powerpc-eabi/6.2.0/../../../../powerpc-eabi/lib/libc.a(lib_a-locale.o)
 .rodata.categories
                0x0000000000000000       0x1c /opt/devkitpro/devkitPPC/lib/gcc/powerpc-eabi/6.2.0/../../../../powerpc-eabi/lib/libc.a(lib_a-locale.o)
 .rodata.currentlocale.str1.4
                0x0000000000000000        0x2 /opt/devkitpro/devkitPPC/lib/gcc/powerpc-eabi/6.2.0/../../../../powerpc-eabi/lib/libc.a(lib_a-locale.o)
 .rodata.loadlocale.str1.4
                0x0000000000000000       0xcf /opt/devkitpro/devkitPPC/lib/gcc/powerpc-eabi/6.2.0/../../../../powerpc-eabi/lib/libc.a(lib_a-locale.o)
 .sbss._PathLocale
                0x0000000000000000        0x4 /opt/devkitpro/devkitPPC/lib/gcc/powerpc-eabi/6.2.0/../../../../powerpc-eabi/lib/libc.a(lib_a-locale.o)
 .sbss.__mlocale_changed
                0x0000000000000000        0x4 /opt/devkitpro/devkitPPC/lib/gcc/powerpc-eabi/6.2.0/../../../../powerpc-eabi/lib/libc.a(lib_a-locale.o)
 .sbss.__nlocale_changed
                0x0000000000000000        0x4 /opt/devkitpro/devkitPPC/lib/gcc/powerpc-eabi/6.2.0/../../../../powerpc-eabi/lib/libc.a(lib_a-locale.o)
 .comment       0x0000000000000000       0x23 /opt/devkitpro/devkitPPC/lib/gcc/powerpc-eabi/6.2.0/../../../../powerpc-eabi/lib/libc.a(lib_a-locale.o)
 .text          0x0000000000000000        0x0 /opt/devkitpro/devkitPPC/lib/gcc/powerpc-eabi/6.2.0/../../../../powerpc-eabi/lib/libc.a(lib_a-mbtowc_r.o)
 .data          0x0000000000000000        0x0 /opt/devkitpro/devkitPPC/lib/gcc/powerpc-eabi/6.2.0/../../../../powerpc-eabi/lib/libc.a(lib_a-mbtowc_r.o)
 .bss           0x0000000000000000        0x0 /opt/devkitpro/devkitPPC/lib/gcc/powerpc-eabi/6.2.0/../../../../powerpc-eabi/lib/libc.a(lib_a-mbtowc_r.o)
 .text._mbtowc_r
                0x0000000000000000       0x70 /opt/devkitpro/devkitPPC/lib/gcc/powerpc-eabi/6.2.0/../../../../powerpc-eabi/lib/libc.a(lib_a-mbtowc_r.o)
 .text.__ascii_mbtowc
                0x0000000000000000       0x84 /opt/devkitpro/devkitPPC/lib/gcc/powerpc-eabi/6.2.0/../../../../powerpc-eabi/lib/libc.a(lib_a-mbtowc_r.o)
 .text.__sjis_mbtowc
                0x0000000000000000      0x1b0 /opt/devkitpro/devkitPPC/lib/gcc/powerpc-eabi/6.2.0/../../../../powerpc-eabi/lib/libc.a(lib_a-mbtowc_r.o)
 .text.__eucjp_mbtowc
                0x0000000000000000      0x23c /opt/devkitpro/devkitPPC/lib/gcc/powerpc-eabi/6.2.0/../../../../powerpc-eabi/lib/libc.a(lib_a-mbtowc_r.o)
 .text.__jis_mbtowc
                0x0000000000000000      0x224 /opt/devkitpro/devkitPPC/lib/gcc/powerpc-eabi/6.2.0/../../../../powerpc-eabi/lib/libc.a(lib_a-mbtowc_r.o)
 .rodata.__jis_mbtowc
                0x0000000000000000       0x18 /opt/devkitpro/devkitPPC/lib/gcc/powerpc-eabi/6.2.0/../../../../powerpc-eabi/lib/libc.a(lib_a-mbtowc_r.o)
 .rodata.JIS_action_table
                0x0000000000000000       0x48 /opt/devkitpro/devkitPPC/lib/gcc/powerpc-eabi/6.2.0/../../../../powerpc-eabi/lib/libc.a(lib_a-mbtowc_r.o)
 .rodata.JIS_state_table
                0x0000000000000000       0x48 /opt/devkitpro/devkitPPC/lib/gcc/powerpc-eabi/6.2.0/../../../../powerpc-eabi/lib/libc.a(lib_a-mbtowc_r.o)
 .comment       0x0000000000000000       0x23 /opt/devkitpro/devkitPPC/lib/gcc/powerpc-eabi/6.2.0/../../../../powerpc-eabi/lib/libc.a(lib_a-mbtowc_r.o)
 .text          0x0000000000000000        0x0 /opt/devkitpro/devkitPPC/lib/gcc/powerpc-eabi/6.2.0/../../../../powerpc-eabi/lib/libc.a(lib_a-memchr.o)
 .data          0x0000000000000000        0x0 /opt/devkitpro/devkitPPC/lib/gcc/powerpc-eabi/6.2.0/../../../../powerpc-eabi/lib/libc.a(lib_a-memchr.o)
 .bss           0x0000000000000000        0x0 /opt/devkitpro/devkitPPC/lib/gcc/powerpc-eabi/6.2.0/../../../../powerpc-eabi/lib/libc.a(lib_a-memchr.o)
 .comment       0x0000000000000000       0x23 /opt/devkitpro/devkitPPC/lib/gcc/powerpc-eabi/6.2.0/../../../../powerpc-eabi/lib/libc.a(lib_a-memchr.o)
 .text          0x0000000000000000        0x0 /opt/devkitpro/devkitPPC/lib/gcc/powerpc-eabi/6.2.0/../../../../powerpc-eabi/lib/libc.a(lib_a-mprec.o)
 .data          0x0000000000000000        0x0 /opt/devkitpro/devkitPPC/lib/gcc/powerpc-eabi/6.2.0/../../../../powerpc-eabi/lib/libc.a(lib_a-mprec.o)
 .bss           0x0000000000000000        0x0 /opt/devkitpro/devkitPPC/lib/gcc/powerpc-eabi/6.2.0/../../../../powerpc-eabi/lib/libc.a(lib_a-mprec.o)
 .text.__s2b    0x0000000000000000      0x138 /opt/devkitpro/devkitPPC/lib/gcc/powerpc-eabi/6.2.0/../../../../powerpc-eabi/lib/libc.a(lib_a-mprec.o)
 .text.__ulp    0x0000000000000000       0x9c /opt/devkitpro/devkitPPC/lib/gcc/powerpc-eabi/6.2.0/../../../../powerpc-eabi/lib/libc.a(lib_a-mprec.o)
 .text.__b2d    0x0000000000000000      0x154 /opt/devkitpro/devkitPPC/lib/gcc/powerpc-eabi/6.2.0/../../../../powerpc-eabi/lib/libc.a(lib_a-mprec.o)
 .text.__ratio  0x0000000000000000       0xdc /opt/devkitpro/devkitPPC/lib/gcc/powerpc-eabi/6.2.0/../../../../powerpc-eabi/lib/libc.a(lib_a-mprec.o)
 .text._mprec_log10
                0x0000000000000000       0x3c /opt/devkitpro/devkitPPC/lib/gcc/powerpc-eabi/6.2.0/../../../../powerpc-eabi/lib/libc.a(lib_a-mprec.o)
 .text.__copybits
                0x0000000000000000       0x8c /opt/devkitpro/devkitPPC/lib/gcc/powerpc-eabi/6.2.0/../../../../powerpc-eabi/lib/libc.a(lib_a-mprec.o)
 .text.__any_on
                0x0000000000000000       0x98 /opt/devkitpro/devkitPPC/lib/gcc/powerpc-eabi/6.2.0/../../../../powerpc-eabi/lib/libc.a(lib_a-mprec.o)
 .rodata.__mprec_tinytens
                0x0000000000000000       0x28 /opt/devkitpro/devkitPPC/lib/gcc/powerpc-eabi/6.2.0/../../../../powerpc-eabi/lib/libc.a(lib_a-mprec.o)
 .rodata._mprec_log10.cst4
                0x0000000000000000        0x8 /opt/devkitpro/devkitPPC/lib/gcc/powerpc-eabi/6.2.0/../../../../powerpc-eabi/lib/libc.a(lib_a-mprec.o)
 .comment       0x0000000000000000       0x23 /opt/devkitpro/devkitPPC/lib/gcc/powerpc-eabi/6.2.0/../../../../powerpc-eabi/lib/libc.a(lib_a-mprec.o)
 .gnu.attributes
                0x0000000000000000       0x10 /opt/devkitpro/devkitPPC/lib/gcc/powerpc-eabi/6.2.0/../../../../powerpc-eabi/lib/libc.a(lib_a-mprec.o)
 .text          0x0000000000000000        0x0 /opt/devkitpro/devkitPPC/lib/gcc/powerpc-eabi/6.2.0/../../../../powerpc-eabi/lib/libc.a(lib_a-s_fpclassify.o)
 .data          0x0000000000000000        0x0 /opt/devkitpro/devkitPPC/lib/gcc/powerpc-eabi/6.2.0/../../../../powerpc-eabi/lib/libc.a(lib_a-s_fpclassify.o)
 .bss           0x0000000000000000        0x0 /opt/devkitpro/devkitPPC/lib/gcc/powerpc-eabi/6.2.0/../../../../powerpc-eabi/lib/libc.a(lib_a-s_fpclassify.o)
 .comment       0x0000000000000000       0x23 /opt/devkitpro/devkitPPC/lib/gcc/powerpc-eabi/6.2.0/../../../../powerpc-eabi/lib/libc.a(lib_a-s_fpclassify.o)
 .gnu.attributes
                0x0000000000000000       0x10 /opt/devkitpro/devkitPPC/lib/gcc/powerpc-eabi/6.2.0/../../../../powerpc-eabi/lib/libc.a(lib_a-s_fpclassify.o)
 .text          0x0000000000000000        0x0 /opt/devkitpro/devkitPPC/lib/gcc/powerpc-eabi/6.2.0/../../../../powerpc-eabi/lib/libc.a(lib_a-strcasecmp.o)
 .data          0x0000000000000000        0x0 /opt/devkitpro/devkitPPC/lib/gcc/powerpc-eabi/6.2.0/../../../../powerpc-eabi/lib/libc.a(lib_a-strcasecmp.o)
 .bss           0x0000000000000000        0x0 /opt/devkitpro/devkitPPC/lib/gcc/powerpc-eabi/6.2.0/../../../../powerpc-eabi/lib/libc.a(lib_a-strcasecmp.o)
 .text.strcasecmp
                0x0000000000000000       0x6c /opt/devkitpro/devkitPPC/lib/gcc/powerpc-eabi/6.2.0/../../../../powerpc-eabi/lib/libc.a(lib_a-strcasecmp.o)
 .comment       0x0000000000000000       0x23 /opt/devkitpro/devkitPPC/lib/gcc/powerpc-eabi/6.2.0/../../../../powerpc-eabi/lib/libc.a(lib_a-strcasecmp.o)
 .text          0x0000000000000000        0x0 /opt/devkitpro/devkitPPC/lib/gcc/powerpc-eabi/6.2.0/../../../../powerpc-eabi/lib/libc.a(lib_a-strcat.o)
 .data          0x0000000000000000        0x0 /opt/devkitpro/devkitPPC/lib/gcc/powerpc-eabi/6.2.0/../../../../powerpc-eabi/lib/libc.a(lib_a-strcat.o)
 .bss           0x0000000000000000        0x0 /opt/devkitpro/devkitPPC/lib/gcc/powerpc-eabi/6.2.0/../../../../powerpc-eabi/lib/libc.a(lib_a-strcat.o)
 .text.strcat   0x0000000000000000       0x88 /opt/devkitpro/devkitPPC/lib/gcc/powerpc-eabi/6.2.0/../../../../powerpc-eabi/lib/libc.a(lib_a-strcat.o)
 .comment       0x0000000000000000       0x23 /opt/devkitpro/devkitPPC/lib/gcc/powerpc-eabi/6.2.0/../../../../powerpc-eabi/lib/libc.a(lib_a-strcat.o)
 .text          0x0000000000000000        0x0 /opt/devkitpro/devkitPPC/lib/gcc/powerpc-eabi/6.2.0/../../../../powerpc-eabi/lib/libc.a(lib_a-strlcpy.o)
 .data          0x0000000000000000        0x0 /opt/devkitpro/devkitPPC/lib/gcc/powerpc-eabi/6.2.0/../../../../powerpc-eabi/lib/libc.a(lib_a-strlcpy.o)
 .bss           0x0000000000000000        0x0 /opt/devkitpro/devkitPPC/lib/gcc/powerpc-eabi/6.2.0/../../../../powerpc-eabi/lib/libc.a(lib_a-strlcpy.o)
 .text.strlcpy  0x0000000000000000       0x78 /opt/devkitpro/devkitPPC/lib/gcc/powerpc-eabi/6.2.0/../../../../powerpc-eabi/lib/libc.a(lib_a-strlcpy.o)
 .comment       0x0000000000000000       0x23 /opt/devkitpro/devkitPPC/lib/gcc/powerpc-eabi/6.2.0/../../../../powerpc-eabi/lib/libc.a(lib_a-strlcpy.o)
 .text          0x0000000000000000        0x0 /opt/devkitpro/devkitPPC/lib/gcc/powerpc-eabi/6.2.0/../../../../powerpc-eabi/lib/libc.a(lib_a-strncasecmp.o)
 .data          0x0000000000000000        0x0 /opt/devkitpro/devkitPPC/lib/gcc/powerpc-eabi/6.2.0/../../../../powerpc-eabi/lib/libc.a(lib_a-strncasecmp.o)
 .bss           0x0000000000000000        0x0 /opt/devkitpro/devkitPPC/lib/gcc/powerpc-eabi/6.2.0/../../../../powerpc-eabi/lib/libc.a(lib_a-strncasecmp.o)
 .text.strncasecmp
                0x0000000000000000       0x80 /opt/devkitpro/devkitPPC/lib/gcc/powerpc-eabi/6.2.0/../../../../powerpc-eabi/lib/libc.a(lib_a-strncasecmp.o)
 .comment       0x0000000000000000       0x23 /opt/devkitpro/devkitPPC/lib/gcc/powerpc-eabi/6.2.0/../../../../powerpc-eabi/lib/libc.a(lib_a-strncasecmp.o)
 .text          0x0000000000000000        0x0 /opt/devkitpro/devkitPPC/lib/gcc/powerpc-eabi/6.2.0/../../../../powerpc-eabi/lib/libc.a(lib_a-strtol.o)
 .data          0x0000000000000000        0x0 /opt/devkitpro/devkitPPC/lib/gcc/powerpc-eabi/6.2.0/../../../../powerpc-eabi/lib/libc.a(lib_a-strtol.o)
 .bss           0x0000000000000000        0x0 /opt/devkitpro/devkitPPC/lib/gcc/powerpc-eabi/6.2.0/../../../../powerpc-eabi/lib/libc.a(lib_a-strtol.o)
 .text._strtol_r
                0x0000000000000000      0x23c /opt/devkitpro/devkitPPC/lib/gcc/powerpc-eabi/6.2.0/../../../../powerpc-eabi/lib/libc.a(lib_a-strtol.o)
 .text.strtol   0x0000000000000000       0x18 /opt/devkitpro/devkitPPC/lib/gcc/powerpc-eabi/6.2.0/../../../../powerpc-eabi/lib/libc.a(lib_a-strtol.o)
 .comment       0x0000000000000000       0x23 /opt/devkitpro/devkitPPC/lib/gcc/powerpc-eabi/6.2.0/../../../../powerpc-eabi/lib/libc.a(lib_a-strtol.o)
 .text          0x0000000000000000        0x0 /opt/devkitpro/devkitPPC/lib/gcc/powerpc-eabi/6.2.0/../../../../powerpc-eabi/lib/libc.a(lib_a-svfiprintf.o)
 .data          0x0000000000000000        0x0 /opt/devkitpro/devkitPPC/lib/gcc/powerpc-eabi/6.2.0/../../../../powerpc-eabi/lib/libc.a(lib_a-svfiprintf.o)
 .bss           0x0000000000000000        0x0 /opt/devkitpro/devkitPPC/lib/gcc/powerpc-eabi/6.2.0/../../../../powerpc-eabi/lib/libc.a(lib_a-svfiprintf.o)
 .text._svfiprintf_r
                0x0000000000000000     0x1634 /opt/devkitpro/devkitPPC/lib/gcc/powerpc-eabi/6.2.0/../../../../powerpc-eabi/lib/libc.a(lib_a-svfiprintf.o)
 .rodata._svfiprintf_r
                0x0000000000000000      0x164 /opt/devkitpro/devkitPPC/lib/gcc/powerpc-eabi/6.2.0/../../../../powerpc-eabi/lib/libc.a(lib_a-svfiprintf.o)
 .rodata._svfiprintf_r.str1.4
                0x0000000000000000       0x2f /opt/devkitpro/devkitPPC/lib/gcc/powerpc-eabi/6.2.0/../../../../powerpc-eabi/lib/libc.a(lib_a-svfiprintf.o)
 .rodata.blanks.5040
                0x0000000000000000       0x10 /opt/devkitpro/devkitPPC/lib/gcc/powerpc-eabi/6.2.0/../../../../powerpc-eabi/lib/libc.a(lib_a-svfiprintf.o)
 .rodata.zeroes.5041
                0x0000000000000000       0x10 /opt/devkitpro/devkitPPC/lib/gcc/powerpc-eabi/6.2.0/../../../../powerpc-eabi/lib/libc.a(lib_a-svfiprintf.o)
 .comment       0x0000000000000000       0x23 /opt/devkitpro/devkitPPC/lib/gcc/powerpc-eabi/6.2.0/../../../../powerpc-eabi/lib/libc.a(lib_a-svfiprintf.o)
 .text          0x0000000000000000        0x0 /opt/devkitpro/devkitPPC/lib/gcc/powerpc-eabi/6.2.0/../../../../powerpc-eabi/lib/libc.a(lib_a-wcsnrtombs.o)
 .data          0x0000000000000000        0x0 /opt/devkitpro/devkitPPC/lib/gcc/powerpc-eabi/6.2.0/../../../../powerpc-eabi/lib/libc.a(lib_a-wcsnrtombs.o)
 .bss           0x0000000000000000        0x0 /opt/devkitpro/devkitPPC/lib/gcc/powerpc-eabi/6.2.0/../../../../powerpc-eabi/lib/libc.a(lib_a-wcsnrtombs.o)
 .text.wcsnrtombs
                0x0000000000000000       0x20 /opt/devkitpro/devkitPPC/lib/gcc/powerpc-eabi/6.2.0/../../../../powerpc-eabi/lib/libc.a(lib_a-wcsnrtombs.o)
 .comment       0x0000000000000000       0x23 /opt/devkitpro/devkitPPC/lib/gcc/powerpc-eabi/6.2.0/../../../../powerpc-eabi/lib/libc.a(lib_a-wcsnrtombs.o)
 .text          0x0000000000000000        0x0 /opt/devkitpro/devkitPPC/lib/gcc/powerpc-eabi/6.2.0/../../../../powerpc-eabi/lib/libc.a(lib_a-ctype_.o)
 .data          0x0000000000000000        0x0 /opt/devkitpro/devkitPPC/lib/gcc/powerpc-eabi/6.2.0/../../../../powerpc-eabi/lib/libc.a(lib_a-ctype_.o)
 .bss           0x0000000000000000        0x0 /opt/devkitpro/devkitPPC/lib/gcc/powerpc-eabi/6.2.0/../../../../powerpc-eabi/lib/libc.a(lib_a-ctype_.o)
 .text.__set_ctype
                0x0000000000000000       0x14 /opt/devkitpro/devkitPPC/lib/gcc/powerpc-eabi/6.2.0/../../../../powerpc-eabi/lib/libc.a(lib_a-ctype_.o)
 .rodata._ctype_
                0x0000000000000000      0x101 /opt/devkitpro/devkitPPC/lib/gcc/powerpc-eabi/6.2.0/../../../../powerpc-eabi/lib/libc.a(lib_a-ctype_.o)
 .sdata.__ctype_ptr__
                0x0000000000000000        0x4 /opt/devkitpro/devkitPPC/lib/gcc/powerpc-eabi/6.2.0/../../../../powerpc-eabi/lib/libc.a(lib_a-ctype_.o)
 .comment       0x0000000000000000       0x23 /opt/devkitpro/devkitPPC/lib/gcc/powerpc-eabi/6.2.0/../../../../powerpc-eabi/lib/libc.a(lib_a-ctype_.o)
 .text          0x0000000000000000        0x0 /opt/devkitpro/devkitPPC/lib/gcc/powerpc-eabi/6.2.0/../../../../powerpc-eabi/lib/libc.a(lib_a-getenv_r.o)
 .data          0x0000000000000000        0x0 /opt/devkitpro/devkitPPC/lib/gcc/powerpc-eabi/6.2.0/../../../../powerpc-eabi/lib/libc.a(lib_a-getenv_r.o)
 .bss           0x0000000000000000        0x0 /opt/devkitpro/devkitPPC/lib/gcc/powerpc-eabi/6.2.0/../../../../powerpc-eabi/lib/libc.a(lib_a-getenv_r.o)
 .text._findenv_r
                0x0000000000000000      0x13c /opt/devkitpro/devkitPPC/lib/gcc/powerpc-eabi/6.2.0/../../../../powerpc-eabi/lib/libc.a(lib_a-getenv_r.o)
 .text._getenv_r
                0x0000000000000000       0x24 /opt/devkitpro/devkitPPC/lib/gcc/powerpc-eabi/6.2.0/../../../../powerpc-eabi/lib/libc.a(lib_a-getenv_r.o)
 .comment       0x0000000000000000       0x23 /opt/devkitpro/devkitPPC/lib/gcc/powerpc-eabi/6.2.0/../../../../powerpc-eabi/lib/libc.a(lib_a-getenv_r.o)
 .text          0x0000000000000000        0x0 /opt/devkitpro/devkitPPC/lib/gcc/powerpc-eabi/6.2.0/../../../../powerpc-eabi/lib/libc.a(lib_a-memmove.o)
 .data          0x0000000000000000        0x0 /opt/devkitpro/devkitPPC/lib/gcc/powerpc-eabi/6.2.0/../../../../powerpc-eabi/lib/libc.a(lib_a-memmove.o)
 .bss           0x0000000000000000        0x0 /opt/devkitpro/devkitPPC/lib/gcc/powerpc-eabi/6.2.0/../../../../powerpc-eabi/lib/libc.a(lib_a-memmove.o)
 .comment       0x0000000000000000       0x23 /opt/devkitpro/devkitPPC/lib/gcc/powerpc-eabi/6.2.0/../../../../powerpc-eabi/lib/libc.a(lib_a-memmove.o)
 .text          0x0000000000000000        0x0 /opt/devkitpro/devkitPPC/lib/gcc/powerpc-eabi/6.2.0/../../../../powerpc-eabi/lib/libc.a(lib_a-environ.o)
 .data          0x0000000000000000        0x0 /opt/devkitpro/devkitPPC/lib/gcc/powerpc-eabi/6.2.0/../../../../powerpc-eabi/lib/libc.a(lib_a-environ.o)
 .bss           0x0000000000000000        0x0 /opt/devkitpro/devkitPPC/lib/gcc/powerpc-eabi/6.2.0/../../../../powerpc-eabi/lib/libc.a(lib_a-environ.o)
 .bss.initial_env
                0x0000000000000000        0x4 /opt/devkitpro/devkitPPC/lib/gcc/powerpc-eabi/6.2.0/../../../../powerpc-eabi/lib/libc.a(lib_a-environ.o)
 .sdata.environ
                0x0000000000000000        0x4 /opt/devkitpro/devkitPPC/lib/gcc/powerpc-eabi/6.2.0/../../../../powerpc-eabi/lib/libc.a(lib_a-environ.o)
 .comment       0x0000000000000000       0x23 /opt/devkitpro/devkitPPC/lib/gcc/powerpc-eabi/6.2.0/../../../../powerpc-eabi/lib/libc.a(lib_a-environ.o)
 .text          0x0000000000000000        0x0 /opt/devkitpro/devkitPPC/lib/gcc/powerpc-eabi/6.2.0/../../../../powerpc-eabi/lib/libc.a(lib_a-envlock.o)
 .data          0x0000000000000000        0x0 /opt/devkitpro/devkitPPC/lib/gcc/powerpc-eabi/6.2.0/../../../../powerpc-eabi/lib/libc.a(lib_a-envlock.o)
 .bss           0x0000000000000000        0x0 /opt/devkitpro/devkitPPC/lib/gcc/powerpc-eabi/6.2.0/../../../../powerpc-eabi/lib/libc.a(lib_a-envlock.o)
 .text.__env_lock
                0x0000000000000000       0x48 /opt/devkitpro/devkitPPC/lib/gcc/powerpc-eabi/6.2.0/../../../../powerpc-eabi/lib/libc.a(lib_a-envlock.o)
 .text.__env_unlock
                0x0000000000000000        0xc /opt/devkitpro/devkitPPC/lib/gcc/powerpc-eabi/6.2.0/../../../../powerpc-eabi/lib/libc.a(lib_a-envlock.o)
 .bss.__env_lock_object
                0x0000000000000000        0x4 /opt/devkitpro/devkitPPC/lib/gcc/powerpc-eabi/6.2.0/../../../../powerpc-eabi/lib/libc.a(lib_a-envlock.o)
 .comment       0x0000000000000000       0x23 /opt/devkitpro/devkitPPC/lib/gcc/powerpc-eabi/6.2.0/../../../../powerpc-eabi/lib/libc.a(lib_a-envlock.o)
 .text          0x0000000000000000       0xa0 /opt/devkitpro/devkitPPC/lib/gcc/powerpc-eabi/6.2.0/../../../../powerpc-eabi/lib/libsysbase.a(close.o)
 .data          0x0000000000000000        0x0 /opt/devkitpro/devkitPPC/lib/gcc/powerpc-eabi/6.2.0/../../../../powerpc-eabi/lib/libsysbase.a(close.o)
 .bss           0x0000000000000000        0x0 /opt/devkitpro/devkitPPC/lib/gcc/powerpc-eabi/6.2.0/../../../../powerpc-eabi/lib/libsysbase.a(close.o)
 .comment       0x0000000000000000       0x23 /opt/devkitpro/devkitPPC/lib/gcc/powerpc-eabi/6.2.0/../../../../powerpc-eabi/lib/libsysbase.a(close.o)
 .text          0x0000000000000000       0xc0 /opt/devkitpro/devkitPPC/lib/gcc/powerpc-eabi/6.2.0/../../../../powerpc-eabi/lib/libsysbase.a(lseek.o)
 .data          0x0000000000000000        0x0 /opt/devkitpro/devkitPPC/lib/gcc/powerpc-eabi/6.2.0/../../../../powerpc-eabi/lib/libsysbase.a(lseek.o)
 .bss           0x0000000000000000        0x0 /opt/devkitpro/devkitPPC/lib/gcc/powerpc-eabi/6.2.0/../../../../powerpc-eabi/lib/libsysbase.a(lseek.o)
 .comment       0x0000000000000000       0x23 /opt/devkitpro/devkitPPC/lib/gcc/powerpc-eabi/6.2.0/../../../../powerpc-eabi/lib/libsysbase.a(lseek.o)
 .text          0x0000000000000000      0x14c /opt/devkitpro/devkitPPC/lib/gcc/powerpc-eabi/6.2.0/../../../../powerpc-eabi/lib/libsysbase.a(open.o)
 .data          0x0000000000000000        0x0 /opt/devkitpro/devkitPPC/lib/gcc/powerpc-eabi/6.2.0/../../../../powerpc-eabi/lib/libsysbase.a(open.o)
 .bss           0x0000000000000000        0x0 /opt/devkitpro/devkitPPC/lib/gcc/powerpc-eabi/6.2.0/../../../../powerpc-eabi/lib/libsysbase.a(open.o)
 .comment       0x0000000000000000       0x23 /opt/devkitpro/devkitPPC/lib/gcc/powerpc-eabi/6.2.0/../../../../powerpc-eabi/lib/libsysbase.a(open.o)
 .text          0x0000000000000000       0xb0 /opt/devkitpro/devkitPPC/lib/gcc/powerpc-eabi/6.2.0/../../../../powerpc-eabi/lib/libsysbase.a(read.o)
 .data          0x0000000000000000        0x0 /opt/devkitpro/devkitPPC/lib/gcc/powerpc-eabi/6.2.0/../../../../powerpc-eabi/lib/libsysbase.a(read.o)
 .bss           0x0000000000000000        0x0 /opt/devkitpro/devkitPPC/lib/gcc/powerpc-eabi/6.2.0/../../../../powerpc-eabi/lib/libsysbase.a(read.o)
 .comment       0x0000000000000000       0x23 /opt/devkitpro/devkitPPC/lib/gcc/powerpc-eabi/6.2.0/../../../../powerpc-eabi/lib/libsysbase.a(read.o)
 .text          0x0000000000000000       0xa4 /opt/devkitpro/devkitPPC/lib/gcc/powerpc-eabi/6.2.0/../../../../powerpc-eabi/lib/libsysbase.a(stat.o)
 .data          0x0000000000000000        0x0 /opt/devkitpro/devkitPPC/lib/gcc/powerpc-eabi/6.2.0/../../../../powerpc-eabi/lib/libsysbase.a(stat.o)
 .bss           0x0000000000000000        0x0 /opt/devkitpro/devkitPPC/lib/gcc/powerpc-eabi/6.2.0/../../../../powerpc-eabi/lib/libsysbase.a(stat.o)
 .comment       0x0000000000000000       0x23 /opt/devkitpro/devkitPPC/lib/gcc/powerpc-eabi/6.2.0/../../../../powerpc-eabi/lib/libsysbase.a(stat.o)
 .text          0x0000000000000000       0xb0 /opt/devkitpro/devkitPPC/lib/gcc/powerpc-eabi/6.2.0/../../../../powerpc-eabi/lib/libsysbase.a(syscall_support.o)
 .data          0x0000000000000000        0x0 /opt/devkitpro/devkitPPC/lib/gcc/powerpc-eabi/6.2.0/../../../../powerpc-eabi/lib/libsysbase.a(syscall_support.o)
 .bss           0x0000000000000000       0x24 /opt/devkitpro/devkitPPC/lib/gcc/powerpc-eabi/6.2.0/../../../../powerpc-eabi/lib/libsysbase.a(syscall_support.o)
 .comment       0x0000000000000000       0x23 /opt/devkitpro/devkitPPC/lib/gcc/powerpc-eabi/6.2.0/../../../../powerpc-eabi/lib/libsysbase.a(syscall_support.o)
 .text          0x0000000000000000      0x174 /opt/devkitpro/devkitPPC/lib/gcc/powerpc-eabi/6.2.0/../../../../powerpc-eabi/lib/libsysbase.a(handle_manager.o)
 .data          0x0000000000000000        0x0 /opt/devkitpro/devkitPPC/lib/gcc/powerpc-eabi/6.2.0/../../../../powerpc-eabi/lib/libsysbase.a(handle_manager.o)
 .bss           0x0000000000000000     0x1004 /opt/devkitpro/devkitPPC/lib/gcc/powerpc-eabi/6.2.0/../../../../powerpc-eabi/lib/libsysbase.a(handle_manager.o)
 .comment       0x0000000000000000       0x23 /opt/devkitpro/devkitPPC/lib/gcc/powerpc-eabi/6.2.0/../../../../powerpc-eabi/lib/libsysbase.a(handle_manager.o)
 .data          0x0000000000000000        0x0 /opt/devkitpro/devkitPPC/lib/gcc/powerpc-eabi/6.2.0/libgcc.a(_umoddi3.o)
 .bss           0x0000000000000000        0x0 /opt/devkitpro/devkitPPC/lib/gcc/powerpc-eabi/6.2.0/libgcc.a(_umoddi3.o)
 .comment       0x0000000000000000       0x23 /opt/devkitpro/devkitPPC/lib/gcc/powerpc-eabi/6.2.0/libgcc.a(_umoddi3.o)
 .eh_frame      0x0000000000000000       0x58 /opt/devkitpro/devkitPPC/lib/gcc/powerpc-eabi/6.2.0/libgcc.a(_umoddi3.o)

Memory Configuration

Name             Origin             Length             Attributes
*default*        0x0000000000000000 0xffffffffffffffff

Linker script and memory map

LOAD main.o
LOAD entry.o
LOAD aoc_functions.o
LOAD os_functions.o
LOAD acp_functions.o
LOAD vpad_functions.o
LOAD gx2_functions.o
LOAD ax_functions.o
LOAD syshid_functions.o
LOAD sys_functions.o
LOAD curl_functions.o
LOAD fs_functions.o
LOAD socket_functions.o
LOAD padscore_functions.o
LOAD sd_fat_devoptab.o
LOAD fs_utils.o
LOAD memory.o
LOAD logger.o
LOAD /opt/devkitpro/devkitPPC/lib/gcc/powerpc-eabi/6.2.0/../../../../powerpc-eabi/lib/libm.a
LOAD /opt/devkitpro/devkitPPC/lib/gcc/powerpc-eabi/6.2.0/libgcc.a
START GROUP
LOAD /opt/devkitpro/devkitPPC/lib/gcc/powerpc-eabi/6.2.0/../../../../powerpc-eabi/lib/libsysbase.a
LOAD /opt/devkitpro/devkitPPC/lib/gcc/powerpc-eabi/6.2.0/../../../../powerpc-eabi/lib/libc.a
END GROUP
LOAD /opt/devkitpro/devkitPPC/lib/gcc/powerpc-eabi/6.2.0/libgcc.a
                0x0000000000802000                . = 0x802000

.text           0x0000000000802000     0xdbf8
 *(.text*)
 .text.axFrameCallback
                0x0000000000802000      0x234 main.o
                0x0000000000802000                axFrameCallback
 .text.Menu_Main
                0x0000000000802234      0x9b4 main.o
                0x0000000000802234                Menu_Main
 .text.__entry_menu
                0x0000000000802be8        0x4 entry.o
                0x0000000000802be8                __entry_menu
 .text.InitOSFunctionPointers
                0x0000000000802bec     0x1480 os_functions.o
                0x0000000000802bec                InitOSFunctionPointers
 .text.InitVPadFunctionPointers
                0x000000000080406c      0x2c0 vpad_functions.o
                0x000000000080406c                InitVPadFunctionPointers
 .text.InitAcquireAX
                0x000000000080432c      0x1c8 ax_functions.o
                0x000000000080432c                InitAcquireAX
 .text.InitAXFunctionPointers
                0x00000000008044f4      0x640 ax_functions.o
                0x00000000008044f4                InitAXFunctionPointers
 .text.InitFSFunctionPointers
                0x0000000000804b34      0xee0 fs_functions.o
                0x0000000000804b34                InitFSFunctionPointers
 .text.InitSocketFunctionPointers
                0x0000000000805a14      0x630 socket_functions.o
                0x0000000000805a14                InitSocketFunctionPointers
 .text.sd_fat_close_r
                0x0000000000806044       0xc4 sd_fat_devoptab.o
 .text.sd_fat_seek_r
                0x0000000000806108      0x174 sd_fat_devoptab.o
 .text.sd_fat_ftruncate_r
                0x000000000080627c       0xc4 sd_fat_devoptab.o
 .text.sd_fat_fsync_r
                0x0000000000806340       0xc4 sd_fat_devoptab.o
 .text.sd_fat_link_r
                0x0000000000806404       0x10 sd_fat_devoptab.o
 .text.sd_fat_dirclose_r
                0x0000000000806414       0xc4 sd_fat_devoptab.o
 .text.sd_fat_dirreset_r
                0x00000000008064d8       0xc4 sd_fat_devoptab.o
 .text.sd_fat_dirnext_r
                0x000000000080659c      0x1a0 sd_fat_devoptab.o
 .text.sd_fat_fstat_r
                0x000000000080673c      0x154 sd_fat_devoptab.o
 .text.sd_fat_read_r
                0x0000000000806890      0x244 sd_fat_devoptab.o
 .text.sd_fat_write_r
                0x0000000000806ad4      0x250 sd_fat_devoptab.o
 .text.sd_fat_open_r
                0x0000000000806d24      0x34c sd_fat_devoptab.o
 .text.sd_fat_mkdir_r
                0x0000000000807070      0x210 sd_fat_devoptab.o
 .text.sd_fat_unlink_r
                0x0000000000807280      0x210 sd_fat_devoptab.o
 .text.sd_fat_chdir_r
                0x0000000000807490      0x210 sd_fat_devoptab.o
 .text.sd_fat_diropen_r
                0x00000000008076a0      0x234 sd_fat_devoptab.o
 .text.sd_fat_rename_r
                0x00000000008078d4      0x2ac sd_fat_devoptab.o
 .text.sd_fat_statvfs_r
                0x0000000000807b80      0x278 sd_fat_devoptab.o
 .text.sd_fat_stat_r
                0x0000000000807df8      0x2c8 sd_fat_devoptab.o
 .text.mount_sd_fat
                0x00000000008080c0      0x38c sd_fat_devoptab.o
                0x00000000008080c0                mount_sd_fat
 .text.unmount_sd_fat
                0x000000000080844c      0x1cc sd_fat_devoptab.o
                0x000000000080844c                unmount_sd_fat
 .text.MountFS  0x0000000000808618      0x144 fs_utils.o
                0x0000000000808618                MountFS
 .text.UmountFS
                0x000000000080875c       0x14 fs_utils.o
                0x000000000080875c                UmountFS
 .text.memoryInitialize
                0x0000000000808770      0x120 memory.o
                0x0000000000808770                memoryInitialize
 .text.memoryRelease
                0x0000000000808890       0xcc memory.o
                0x0000000000808890                memoryRelease
 .text.__wrap_malloc
                0x000000000080895c       0x14 memory.o
                0x000000000080895c                __wrap_malloc
 .text.__wrap_memalign
                0x0000000000808970       0x2c memory.o
                0x0000000000808970                __wrap_memalign
 .text.__wrap_free
                0x000000000080899c       0x1c memory.o
                0x000000000080899c                __wrap_free
 .text.__wrap_calloc
                0x00000000008089b8       0x60 memory.o
                0x00000000008089b8                __wrap_calloc
 .text.__wrap__malloc_r
                0x0000000000808a18       0x18 memory.o
                0x0000000000808a18                __wrap__malloc_r
 .text.__wrap__calloc_r
                0x0000000000808a30       0x60 memory.o
                0x0000000000808a30                __wrap__calloc_r
 .text.__wrap__free_r
                0x0000000000808a90       0x1c memory.o
                0x0000000000808a90                __wrap__free_r
 .text.__wrap__realloc_r
                0x0000000000808aac       0x9c memory.o
                0x0000000000808aac                __wrap__realloc_r
 .text.MEM1_alloc
                0x0000000000808b48       0x2c memory.o
                0x0000000000808b48                MEM1_alloc
 .text.MEM1_free
                0x0000000000808b74       0x1c memory.o
                0x0000000000808b74                MEM1_free
 .text.sin      0x0000000000808b90        0x8 /opt/devkitpro/devkitPPC/lib/gcc/powerpc-eabi/6.2.0/../../../../powerpc-eabi/lib/libm.a(lib_a-s_sin.o)
                0x0000000000808b90                sin
 .text.sine     0x0000000000808b98      0x290 /opt/devkitpro/devkitPPC/lib/gcc/powerpc-eabi/6.2.0/../../../../powerpc-eabi/lib/libm.a(lib_a-s_sine.o)
                0x0000000000808b98                sine
 .text.fabs     0x0000000000808e28       0xb0 /opt/devkitpro/devkitPPC/lib/gcc/powerpc-eabi/6.2.0/../../../../powerpc-eabi/lib/libm.a(lib_a-s_fabs.o)
                0x0000000000808e28                fabs
 .text.numtest  0x0000000000808ed8       0x54 /opt/devkitpro/devkitPPC/lib/gcc/powerpc-eabi/6.2.0/../../../../powerpc-eabi/lib/libm.a(lib_a-s_numtest.o)
                0x0000000000808ed8                numtest
 .text          0x0000000000808f2c      0x40c /opt/devkitpro/devkitPPC/lib/gcc/powerpc-eabi/6.2.0/libgcc.a(_divdi3.o)
                0x0000000000808f2c                __divdi3
 .text          0x0000000000809338      0x3b4 /opt/devkitpro/devkitPPC/lib/gcc/powerpc-eabi/6.2.0/libgcc.a(_moddi3.o)
                0x0000000000809338                __moddi3
 .text          0x00000000008096ec      0x3e4 /opt/devkitpro/devkitPPC/lib/gcc/powerpc-eabi/6.2.0/libgcc.a(_udivdi3.o)
                0x00000000008096ec                __udivdi3
 .text.__errno  0x0000000000809ad0        0xc /opt/devkitpro/devkitPPC/lib/gcc/powerpc-eabi/6.2.0/../../../../powerpc-eabi/lib/libc.a(lib_a-errno.o)
                0x0000000000809ad0                __errno
 .text.memcpy   0x0000000000809adc       0xfc /opt/devkitpro/devkitPPC/lib/gcc/powerpc-eabi/6.2.0/../../../../powerpc-eabi/lib/libc.a(lib_a-memcpy.o)
                0x0000000000809adc                memcpy
 .text.memset   0x0000000000809bd8      0x114 /opt/devkitpro/devkitPPC/lib/gcc/powerpc-eabi/6.2.0/../../../../powerpc-eabi/lib/libc.a(lib_a-memset.o)
                0x0000000000809bd8                memset
 .text.snprintf
                0x0000000000809cec      0x16c /opt/devkitpro/devkitPPC/lib/gcc/powerpc-eabi/6.2.0/../../../../powerpc-eabi/lib/libc.a(lib_a-snprintf.o)
                0x0000000000809cec                snprintf
 .text.strchr   0x0000000000809e58      0x174 /opt/devkitpro/devkitPPC/lib/gcc/powerpc-eabi/6.2.0/../../../../powerpc-eabi/lib/libc.a(lib_a-strchr.o)
                0x0000000000809e58                strchr
 .text.strcmp   0x0000000000809fcc       0xa8 /opt/devkitpro/devkitPPC/lib/gcc/powerpc-eabi/6.2.0/../../../../powerpc-eabi/lib/libc.a(lib_a-strcmp.o)
                0x0000000000809fcc                strcmp
 .text.strcpy   0x000000000080a074       0x70 /opt/devkitpro/devkitPPC/lib/gcc/powerpc-eabi/6.2.0/../../../../powerpc-eabi/lib/libc.a(lib_a-strcpy.o)
                0x000000000080a074                strcpy
 .text.strlen   0x000000000080a0e4       0xa8 /opt/devkitpro/devkitPPC/lib/gcc/powerpc-eabi/6.2.0/../../../../powerpc-eabi/lib/libc.a(lib_a-strlen.o)
                0x000000000080a0e4                strlen
 .text.strncpy  0x000000000080a18c       0xe4 /opt/devkitpro/devkitPPC/lib/gcc/powerpc-eabi/6.2.0/../../../../powerpc-eabi/lib/libc.a(lib_a-strncpy.o)
                0x000000000080a18c                strncpy
 .text.strtok   0x000000000080a270       0x14 /opt/devkitpro/devkitPPC/lib/gcc/powerpc-eabi/6.2.0/../../../../powerpc-eabi/lib/libc.a(lib_a-strtok.o)
                0x000000000080a270                strtok
 .text.__strtok_r
                0x000000000080a284       0xcc /opt/devkitpro/devkitPPC/lib/gcc/powerpc-eabi/6.2.0/../../../../powerpc-eabi/lib/libc.a(lib_a-strtok_r.o)
                0x000000000080a284                __strtok_r
 .text._svfprintf_r
                0x000000000080a350     0x24d8 /opt/devkitpro/devkitPPC/lib/gcc/powerpc-eabi/6.2.0/../../../../powerpc-eabi/lib/libc.a(lib_a-svfprintf.o)
                0x000000000080a350                _svfprintf_r
 .text._wcrtomb_r
                0x000000000080c828       0xbc /opt/devkitpro/devkitPPC/lib/gcc/powerpc-eabi/6.2.0/../../../../powerpc-eabi/lib/libc.a(lib_a-wcrtomb.o)
                0x000000000080c828                _wcrtomb_r
 .text._wcsrtombs_r
                0x000000000080c8e4       0x10 /opt/devkitpro/devkitPPC/lib/gcc/powerpc-eabi/6.2.0/../../../../powerpc-eabi/lib/libc.a(lib_a-wcsrtombs.o)
                0x000000000080c8e4                _wcsrtombs_r
 .text.__utf8_wctomb
                0x000000000080c8f4       0xf0 /opt/devkitpro/devkitPPC/lib/gcc/powerpc-eabi/6.2.0/../../../../powerpc-eabi/lib/libc.a(lib_a-wctomb_r.o)
                0x000000000080c8f4                __utf8_wctomb
 .text.quorem   0x000000000080c9e4      0x254 /opt/devkitpro/devkitPPC/lib/gcc/powerpc-eabi/6.2.0/../../../../powerpc-eabi/lib/libc.a(lib_a-dtoa.o)
 .text._dtoa_r  0x000000000080cc38     0x126c /opt/devkitpro/devkitPPC/lib/gcc/powerpc-eabi/6.2.0/../../../../powerpc-eabi/lib/libc.a(lib_a-dtoa.o)
                0x000000000080cc38                _dtoa_r
 .text.__locale_charset
                0x000000000080dea4        0xc /opt/devkitpro/devkitPPC/lib/gcc/powerpc-eabi/6.2.0/../../../../powerpc-eabi/lib/libc.a(lib_a-locale.o)
                0x000000000080dea4                __locale_charset
 .text.__locale_mb_cur_max
                0x000000000080deb0        0xc /opt/devkitpro/devkitPPC/lib/gcc/powerpc-eabi/6.2.0/../../../../powerpc-eabi/lib/libc.a(lib_a-locale.o)
                0x000000000080deb0                __locale_mb_cur_max
 .text._localeconv_r
                0x000000000080debc        0xc /opt/devkitpro/devkitPPC/lib/gcc/powerpc-eabi/6.2.0/../../../../powerpc-eabi/lib/libc.a(lib_a-locale.o)
                0x000000000080debc                _localeconv_r
 .text.__utf8_mbtowc
                0x000000000080dec8      0x5d8 /opt/devkitpro/devkitPPC/lib/gcc/powerpc-eabi/6.2.0/../../../../powerpc-eabi/lib/libc.a(lib_a-mbtowc_r.o)
                0x000000000080dec8                __utf8_mbtowc
 .text.memchr   0x000000000080e4a0       0xec /opt/devkitpro/devkitPPC/lib/gcc/powerpc-eabi/6.2.0/../../../../powerpc-eabi/lib/libc.a(lib_a-memchr.o)
                0x000000000080e4a0                memchr
 .text._Balloc  0x000000000080e58c       0xbc /opt/devkitpro/devkitPPC/lib/gcc/powerpc-eabi/6.2.0/../../../../powerpc-eabi/lib/libc.a(lib_a-mprec.o)
                0x000000000080e58c                _Balloc
 .text._Bfree   0x000000000080e648       0x24 /opt/devkitpro/devkitPPC/lib/gcc/powerpc-eabi/6.2.0/../../../../powerpc-eabi/lib/libc.a(lib_a-mprec.o)
                0x000000000080e648                _Bfree
 .text.__multadd
                0x000000000080e66c      0x120 /opt/devkitpro/devkitPPC/lib/gcc/powerpc-eabi/6.2.0/../../../../powerpc-eabi/lib/libc.a(lib_a-mprec.o)
                0x000000000080e66c                __multadd
 .text.__hi0bits
                0x000000000080e78c       0x64 /opt/devkitpro/devkitPPC/lib/gcc/powerpc-eabi/6.2.0/../../../../powerpc-eabi/lib/libc.a(lib_a-mprec.o)
                0x000000000080e78c                __hi0bits
 .text.__lo0bits
                0x000000000080e7f0       0xc0 /opt/devkitpro/devkitPPC/lib/gcc/powerpc-eabi/6.2.0/../../../../powerpc-eabi/lib/libc.a(lib_a-mprec.o)
                0x000000000080e7f0                __lo0bits
 .text.__i2b    0x000000000080e8b0       0x3c /opt/devkitpro/devkitPPC/lib/gcc/powerpc-eabi/6.2.0/../../../../powerpc-eabi/lib/libc.a(lib_a-mprec.o)
                0x000000000080e8b0                __i2b
 .text.__multiply
                0x000000000080e8ec      0x254 /opt/devkitpro/devkitPPC/lib/gcc/powerpc-eabi/6.2.0/../../../../powerpc-eabi/lib/libc.a(lib_a-mprec.o)
                0x000000000080e8ec                __multiply
 .text.__pow5mult
                0x000000000080eb40      0x15c /opt/devkitpro/devkitPPC/lib/gcc/powerpc-eabi/6.2.0/../../../../powerpc-eabi/lib/libc.a(lib_a-mprec.o)
                0x000000000080eb40                __pow5mult
 .text.__lshift
                0x000000000080ec9c      0x17c /opt/devkitpro/devkitPPC/lib/gcc/powerpc-eabi/6.2.0/../../../../powerpc-eabi/lib/libc.a(lib_a-mprec.o)
                0x000000000080ec9c                __lshift
 .text.__mcmp   0x000000000080ee18       0x5c /opt/devkitpro/devkitPPC/lib/gcc/powerpc-eabi/6.2.0/../../../../powerpc-eabi/lib/libc.a(lib_a-mprec.o)
                0x000000000080ee18                __mcmp
 .text.__mdiff  0x000000000080ee74      0x22c /opt/devkitpro/devkitPPC/lib/gcc/powerpc-eabi/6.2.0/../../../../powerpc-eabi/lib/libc.a(lib_a-mprec.o)
                0x000000000080ee74                __mdiff
 .text.__d2b    0x000000000080f0a0      0x188 /opt/devkitpro/devkitPPC/lib/gcc/powerpc-eabi/6.2.0/../../../../powerpc-eabi/lib/libc.a(lib_a-mprec.o)
                0x000000000080f0a0                __d2b
 .text.__fpclassifyd
                0x000000000080f228       0x94 /opt/devkitpro/devkitPPC/lib/gcc/powerpc-eabi/6.2.0/../../../../powerpc-eabi/lib/libc.a(lib_a-s_fpclassify.o)
                0x000000000080f228                __fpclassifyd
 .text.__ssprint_r
                0x000000000080f2bc      0x258 /opt/devkitpro/devkitPPC/lib/gcc/powerpc-eabi/6.2.0/../../../../powerpc-eabi/lib/libc.a(lib_a-svfiprintf.o)
                0x000000000080f2bc                __ssprint_r
 .text._wcsnrtombs_r
                0x000000000080f514      0x1dc /opt/devkitpro/devkitPPC/lib/gcc/powerpc-eabi/6.2.0/../../../../powerpc-eabi/lib/libc.a(lib_a-wcsnrtombs.o)
                0x000000000080f514                _wcsnrtombs_r
 .text.memmove  0x000000000080f6f0      0x144 /opt/devkitpro/devkitPPC/lib/gcc/powerpc-eabi/6.2.0/../../../../powerpc-eabi/lib/libc.a(lib_a-memmove.o)
                0x000000000080f6f0                memmove
 .text          0x000000000080f834      0x3c4 /opt/devkitpro/devkitPPC/lib/gcc/powerpc-eabi/6.2.0/libgcc.a(_umoddi3.o)
                0x000000000080f834                __umoddi3

.rodata         0x000000000080fbf8     0x2094
 *(.rodata*)
 .rodata.Menu_Main.cst4
                0x000000000080fbf8       0x20 main.o
 .rodata.Menu_Main.cst8
                0x000000000080fc18       0x10 main.o
 .rodata.Menu_Main.str1.4
                0x000000000080fc28       0x84 main.o
 .rodata.axFrameCallback.cst4
                0x000000000080fcac        0xc main.o
 .rodata.InitAcquireOS.str1.4
                0x000000000080fcb8        0xd os_functions.o
 *fill*         0x000000000080fcc5        0x3 
 .rodata.InitOSFunctionPointers.str1.4
                0x000000000080fcc8      0xb5f os_functions.o
 *fill*         0x0000000000810827        0x1 
 .rodata.InitAcquireVPad.str1.4
                0x0000000000810828       0x19 vpad_functions.o
 *fill*         0x0000000000810841        0x3 
 .rodata.InitVPadFunctionPointers.str1.4
                0x0000000000810844      0x15e vpad_functions.o
 *fill*         0x00000000008109a2        0x2 
 .rodata.InitAXFunctionPointers.str1.4
                0x00000000008109a4      0x376 ax_functions.o
 *fill*         0x0000000000810d1a        0x2 
 .rodata.InitAcquireAX.str1.4
                0x0000000000810d1c       0xbc ax_functions.o
 .rodata.InitFSFunctionPointers.str1.4
                0x0000000000810dd8      0x79e fs_functions.o
 *fill*         0x0000000000811576        0x2 
 .rodata.InitAcquireSocket.str1.4
                0x0000000000811578        0xc socket_functions.o
 .rodata.InitSocketFunctionPointers.str1.4
                0x0000000000811584      0x26a socket_functions.o
 *fill*         0x00000000008117ee        0x2 
 .rodata.devops_sd_fat
                0x00000000008117f0       0x64 sd_fat_devoptab.o
 .rodata.sd_fat_open_r.str1.4
                0x0000000000811854        0xf sd_fat_devoptab.o
                                         0x17 (size before relaxing)
 *fill*         0x0000000000811863        0x1 
 .rodata.sine.cst4
                0x0000000000811864       0x10 /opt/devkitpro/devkitPPC/lib/gcc/powerpc-eabi/6.2.0/../../../../powerpc-eabi/lib/libm.a(lib_a-s_sine.o)
 *fill*         0x0000000000811874        0x4 
 .rodata.sine.cst8
                0x0000000000811878       0x58 /opt/devkitpro/devkitPPC/lib/gcc/powerpc-eabi/6.2.0/../../../../powerpc-eabi/lib/libm.a(lib_a-s_sine.o)
 .rodata.fabs.cst4
                0x00000000008118d0        0x4 /opt/devkitpro/devkitPPC/lib/gcc/powerpc-eabi/6.2.0/../../../../powerpc-eabi/lib/libm.a(lib_a-s_fabs.o)
 .rodata.numtest.cst4
                0x00000000008118d0        0x4 /opt/devkitpro/devkitPPC/lib/gcc/powerpc-eabi/6.2.0/../../../../powerpc-eabi/lib/libm.a(lib_a-s_numtest.o)
 .rodata        0x00000000008118d0       0x64 /opt/devkitpro/devkitPPC/lib/gcc/powerpc-eabi/6.2.0/../../../../powerpc-eabi/lib/libsysbase.a(iosupport.o)
                0x00000000008118d0                dotab_stdnull
 .rodata.str1.4
                0x0000000000811934        0x8 /opt/devkitpro/devkitPPC/lib/gcc/powerpc-eabi/6.2.0/../../../../powerpc-eabi/lib/libsysbase.a(iosupport.o)
 .rodata.str1.4
                0x000000000081193c        0x2 /opt/devkitpro/devkitPPC/lib/gcc/powerpc-eabi/6.2.0/../../../../powerpc-eabi/lib/libc.a(lib_a-impure.o)
 *fill*         0x000000000081193e        0x2 
 .rodata._svfprintf_r
                0x0000000000811940      0x164 /opt/devkitpro/devkitPPC/lib/gcc/powerpc-eabi/6.2.0/../../../../powerpc-eabi/lib/libc.a(lib_a-svfprintf.o)
 .rodata._svfprintf_r.cst4
                0x0000000000811aa4        0x4 /opt/devkitpro/devkitPPC/lib/gcc/powerpc-eabi/6.2.0/../../../../powerpc-eabi/lib/libc.a(lib_a-svfprintf.o)
 .rodata._svfprintf_r.str1.4
                0x0000000000811aa4       0x42 /opt/devkitpro/devkitPPC/lib/gcc/powerpc-eabi/6.2.0/../../../../powerpc-eabi/lib/libc.a(lib_a-svfprintf.o)
 *fill*         0x0000000000811ae6        0x2 
 .rodata.blanks.5096
                0x0000000000811ae8       0x10 /opt/devkitpro/devkitPPC/lib/gcc/powerpc-eabi/6.2.0/../../../../powerpc-eabi/lib/libc.a(lib_a-svfprintf.o)
 .rodata.zeroes.5097
                0x0000000000811af8       0x10 /opt/devkitpro/devkitPPC/lib/gcc/powerpc-eabi/6.2.0/../../../../powerpc-eabi/lib/libc.a(lib_a-svfprintf.o)
 .rodata._dtoa_r.cst4
                0x0000000000811b08       0x14 /opt/devkitpro/devkitPPC/lib/gcc/powerpc-eabi/6.2.0/../../../../powerpc-eabi/lib/libc.a(lib_a-dtoa.o)
                                         0x24 (size before relaxing)
 *fill*         0x0000000000811b1c        0x4 
 .rodata._dtoa_r.cst8
                0x0000000000811b20       0x18 /opt/devkitpro/devkitPPC/lib/gcc/powerpc-eabi/6.2.0/../../../../powerpc-eabi/lib/libc.a(lib_a-dtoa.o)
 .rodata._dtoa_r.str1.4
                0x0000000000811b38       0x10 /opt/devkitpro/devkitPPC/lib/gcc/powerpc-eabi/6.2.0/../../../../powerpc-eabi/lib/libc.a(lib_a-dtoa.o)
                                         0x12 (size before relaxing)
 .rodata.str1.4
                0x0000000000811b48       0x48 /opt/devkitpro/devkitPPC/lib/gcc/powerpc-eabi/6.2.0/../../../../powerpc-eabi/lib/libc.a(lib_a-locale.o)
                                         0x49 (size before relaxing)
 .rodata.__mprec_bigtens
                0x0000000000811b90       0x28 /opt/devkitpro/devkitPPC/lib/gcc/powerpc-eabi/6.2.0/../../../../powerpc-eabi/lib/libc.a(lib_a-mprec.o)
                0x0000000000811b90                __mprec_bigtens
 .rodata.__mprec_tens
                0x0000000000811bb8       0xc8 /opt/devkitpro/devkitPPC/lib/gcc/powerpc-eabi/6.2.0/../../../../powerpc-eabi/lib/libc.a(lib_a-mprec.o)
                0x0000000000811bb8                __mprec_tens
 .rodata.p05.3525
                0x0000000000811c80        0xc /opt/devkitpro/devkitPPC/lib/gcc/powerpc-eabi/6.2.0/../../../../powerpc-eabi/lib/libc.a(lib_a-mprec.o)

.data           0x0000000000811c90      0x774
 *(.data*)
 .data          0x0000000000811c90      0x104 os_functions.o
                0x0000000000811c90                OSDynLoad_Acquire
                0x0000000000811c94                OSDynLoad_FindExport
                0x0000000000811c98                coreinit_handle
                0x0000000000811c9c                OSFatal
                0x0000000000811ca0                OSGetSecurityLevel
                0x0000000000811ca4                OSGetTitleID
                0x0000000000811ca8                OSGetArgcArgv
                0x0000000000811cac                OSSetExceptionCallback
                0x0000000000811cb0                DCFlushRange
                0x0000000000811cb4                ICInvalidateRange
                0x0000000000811cb8                OSEffectiveToPhysical
                0x0000000000811cbc                __os_snprintf
                0x0000000000811cc0                __gh_errno_ptr
                0x0000000000811cc4                __Exit
                0x0000000000811cc8                OSScreenInit
                0x0000000000811ccc                OSScreenGetBufferSizeEx
                0x0000000000811cd0                OSScreenSetBufferEx
                0x0000000000811cd4                OSScreenClearBufferEx
                0x0000000000811cd8                OSScreenFlipBuffersEx
                0x0000000000811cdc                OSScreenPutFontEx
                0x0000000000811ce0                OSScreenEnableEx
                0x0000000000811ce4                OSCreateThread
                0x0000000000811ce8                OSResumeThread
                0x0000000000811cec                OSSuspendThread
                0x0000000000811cf0                OSIsThreadTerminated
                0x0000000000811cf4                OSIsThreadSuspended
                0x0000000000811cf8                OSJoinThread
                0x0000000000811cfc                OSSetThreadPriority
                0x0000000000811d00                OSDetachThread
                0x0000000000811d04                OSSleepTicks
                0x0000000000811d08                OSGetTick
                0x0000000000811d0c                OSGetTime
                0x0000000000811d10                OSTicksToCalendarTime
                0x0000000000811d14                OSInitMutex
                0x0000000000811d18                OSLockMutex
                0x0000000000811d1c                OSUnlockMutex
                0x0000000000811d20                OSTryLockMutex
                0x0000000000811d24                MCP_Open
                0x0000000000811d28                MCP_Close
                0x0000000000811d2c                MCP_GetOwnTitleInfo
                0x0000000000811d30                pMEMAllocFromDefaultHeapEx
                0x0000000000811d34                pMEMAllocFromDefaultHeap
                0x0000000000811d38                pMEMFreeToDefaultHeap
                0x0000000000811d3c                MEMGetBaseHeapHandle
                0x0000000000811d40                MEMGetAllocatableSizeForFrmHeapEx
                0x0000000000811d44                MEMAllocFromFrmHeapEx
                0x0000000000811d48                MEMFreeToFrmHeap
                0x0000000000811d4c                MEMAllocFromExpHeapEx
                0x0000000000811d50                MEMCreateExpHeapEx
                0x0000000000811d54                MEMDestroyExpHeap
                0x0000000000811d58                MEMFreeToExpHeap
                0x0000000000811d5c                DCInvalidateRange
                0x0000000000811d60                IMEnableDim
                0x0000000000811d64                IMDisableDim
                0x0000000000811d68                IMIsDimEnabled
                0x0000000000811d6c                IMEnableAPD
                0x0000000000811d70                IMDisableAPD
                0x0000000000811d74                IMIsAPDEnabled
                0x0000000000811d78                IMIsAPDEnabledBySysSettings
                0x0000000000811d7c                LiWaitIopComplete
                0x0000000000811d80                LiWaitIopCompleteWithInterrupts
                0x0000000000811d84                addr_LiWaitOneChunk
                0x0000000000811d88                addr_PrepareTitle_hook
                0x0000000000811d8c                addr_sgIsLoadingBuffer
                0x0000000000811d90                addr_gDynloadInitialized
 .data          0x0000000000811d94       0x20 vpad_functions.o
                0x0000000000811d94                vpad_handle
                0x0000000000811d98                vpadbase_handle
                0x0000000000811d9c                VPADInit
                0x0000000000811da0                VPADRead
                0x0000000000811da4                VPADGetLcdMode
                0x0000000000811da8                VPADSetLcdMode
                0x0000000000811dac                VPADBASEGetMotorOnRemainingCount
                0x0000000000811db0                VPADBASESetMotorOnRemainingCount
 .data          0x0000000000811db4       0x58 ax_functions.o
                0x0000000000811db4                AXInit
                0x0000000000811db8                sound_handle
                0x0000000000811dbc                AXInitWithParams
                0x0000000000811dc0                AXGetInputSamplesPerSec
                0x0000000000811dc4                AXQuit
                0x0000000000811dc8                AXVoiceBegin
                0x0000000000811dcc                AXVoiceEnd
                0x0000000000811dd0                AXSetVoiceType
                0x0000000000811dd4                AXSetVoiceOffsets
                0x0000000000811dd8                AXSetVoiceSrcType
                0x0000000000811ddc                AXSetVoiceVe
                0x0000000000811de0                AXSetVoiceDeviceMix
                0x0000000000811de4                AXSetVoiceState
                0x0000000000811de8                AXSetVoiceSrc
                0x0000000000811dec                AXSetVoiceSrcRatio
                0x0000000000811df0                AXAcquireVoice
                0x0000000000811df4                AXFreeVoice
                0x0000000000811df8                AXRegisterFrameCallback
                0x0000000000811dfc                AXGetVoiceLoopCount
                0x0000000000811e00                AXSetVoiceEndOffset
                0x0000000000811e04                AXSetVoiceLoopOffset
                0x0000000000811e08                AXGetInputSamplesPerFrame
 .data          0x0000000000811e0c       0xa8 fs_functions.o
                0x0000000000811e0c                FSInit
                0x0000000000811e10                FSShutdown
                0x0000000000811e14                FSAddClientEx
                0x0000000000811e18                FSDelClient
                0x0000000000811e1c                FSInitCmdBlock
                0x0000000000811e20                FSGetMountSource
                0x0000000000811e24                FSMount
                0x0000000000811e28                FSUnmount
                0x0000000000811e2c                FSGetStat
                0x0000000000811e30                FSGetStatAsync
                0x0000000000811e34                FSRename
                0x0000000000811e38                FSRenameAsync
                0x0000000000811e3c                FSRemove
                0x0000000000811e40                FSRemoveAsync
                0x0000000000811e44                FSFlushQuota
                0x0000000000811e48                FSFlushQuotaAsync
                0x0000000000811e4c                FSGetFreeSpaceSize
                0x0000000000811e50                FSGetFreeSpaceSizeAsync
                0x0000000000811e54                FSRollbackQuota
                0x0000000000811e58                FSRollbackQuotaAsync
                0x0000000000811e5c                FSOpenDir
                0x0000000000811e60                FSOpenDirAsync
                0x0000000000811e64                FSReadDir
                0x0000000000811e68                FSRewindDir
                0x0000000000811e6c                FSCloseDir
                0x0000000000811e70                FSChangeDir
                0x0000000000811e74                FSChangeDirAsync
                0x0000000000811e78                FSMakeDir
                0x0000000000811e7c                FSMakeDirAsync
                0x0000000000811e80                FSOpenFile
                0x0000000000811e84                FSOpenFileAsync
                0x0000000000811e88                FSReadFile
                0x0000000000811e8c                FSCloseFile
                0x0000000000811e90                FSFlushFile
                0x0000000000811e94                FSTruncateFile
                0x0000000000811e98                FSGetStatFile
                0x0000000000811e9c                FSSetPosFile
                0x0000000000811ea0                FSWriteFile
                0x0000000000811ea4                FSBindMount
                0x0000000000811ea8                FSBindUnmount
                0x0000000000811eac                FSMakeQuota
                0x0000000000811eb0                FSMakeQuotaAsync
 .data          0x0000000000811eb4       0x44 socket_functions.o
                0x0000000000811eb4                nsysnet_handle
                0x0000000000811eb8                socket_lib_init
                0x0000000000811ebc                socket
                0x0000000000811ec0                socketclose
                0x0000000000811ec4                connect
                0x0000000000811ec8                bind
                0x0000000000811ecc                listen
                0x0000000000811ed0                accept
                0x0000000000811ed4                send
                0x0000000000811ed8                recv
                0x0000000000811edc                sendto
                0x0000000000811ee0                setsockopt
                0x0000000000811ee4                inet_ntoa
                0x0000000000811ee8                inet_aton
                0x0000000000811eec                NSSLWrite
                0x0000000000811ef0                NSSLRead
                0x0000000000811ef4                NSSLCreateConnection
 .data.bucket_heap
                0x0000000000811ef8        0x4 memory.o
 .data.mem1_heap
                0x0000000000811efc        0x4 memory.o
 .data          0x0000000000811f00       0x44 /opt/devkitpro/devkitPPC/lib/gcc/powerpc-eabi/6.2.0/../../../../powerpc-eabi/lib/libsysbase.a(iosupport.o)
                0x0000000000811f04                devoptab_list
 *fill*         0x0000000000811f44        0x4 
 .data.impure_data
                0x0000000000811f48      0x440 /opt/devkitpro/devkitPPC/lib/gcc/powerpc-eabi/6.2.0/../../../../powerpc-eabi/lib/libc.a(lib_a-impure.o)
 .data.lc_ctype_charset
                0x0000000000812388       0x20 /opt/devkitpro/devkitPPC/lib/gcc/powerpc-eabi/6.2.0/../../../../powerpc-eabi/lib/libc.a(lib_a-locale.o)
 .data.lconv    0x00000000008123a8       0x38 /opt/devkitpro/devkitPPC/lib/gcc/powerpc-eabi/6.2.0/../../../../powerpc-eabi/lib/libc.a(lib_a-locale.o)
                0x00000000008123e0                __sdata_start = .
 *(.sdata*)
 .sdata         0x00000000008123e0        0x0 main.o
                0x000000000081a3e0                _SDA_BASE_
 .sdata2        0x00000000008123e0        0x0 main.o
                0x000000000081a3e0                _SDA2_BASE_
 .sdata.z_notanum
                0x00000000008123e0        0x8 /opt/devkitpro/devkitPPC/lib/gcc/powerpc-eabi/6.2.0/../../../../powerpc-eabi/lib/libm.a(lib_a-s_mathcnst.o)
                0x00000000008123e0                z_notanum
 .sdata.z_rooteps
                0x00000000008123e8        0x8 /opt/devkitpro/devkitPPC/lib/gcc/powerpc-eabi/6.2.0/../../../../powerpc-eabi/lib/libm.a(lib_a-s_mathcnst.o)
                0x00000000008123e8                z_rooteps
 .sdata         0x00000000008123f0        0x8 /opt/devkitpro/devkitPPC/lib/gcc/powerpc-eabi/6.2.0/../../../../powerpc-eabi/lib/libc.a(lib_a-impure.o)
                0x00000000008123f0                _global_impure_ptr
                0x00000000008123f4                _impure_ptr
 .sdata.__wctomb
                0x00000000008123f8        0x4 /opt/devkitpro/devkitPPC/lib/gcc/powerpc-eabi/6.2.0/../../../../powerpc-eabi/lib/libc.a(lib_a-wctomb_r.o)
                0x00000000008123f8                __wctomb
 .sdata.__mb_cur_max
                0x00000000008123fc        0x4 /opt/devkitpro/devkitPPC/lib/gcc/powerpc-eabi/6.2.0/../../../../powerpc-eabi/lib/libc.a(lib_a-locale.o)
                0x00000000008123fc                __mb_cur_max
 .sdata.__mbtowc
                0x0000000000812400        0x4 /opt/devkitpro/devkitPPC/lib/gcc/powerpc-eabi/6.2.0/../../../../powerpc-eabi/lib/libc.a(lib_a-mbtowc_r.o)
                0x0000000000812400                __mbtowc
                0x0000000000812404                __sdata_end = .
                0x0000000000812404                __sdata2_start = .
 *(.sdata2*)
                0x0000000000812404                __sdata2_end = .

.bss            0x0000000000812404       0x3c
                0x0000000000812404                __bss_start = .
 *(.bss*)
 *(.sbss*)
 *(COMMON)
 COMMON         0x0000000000812404       0x3c main.o
                0x0000000000812404                voiceBuffer
                0x0000000000812418                voice1
                0x0000000000812440                __bss_end = .
                0x0000000000812440                __CODE_END = .

/DISCARD/
 *(*)
OUTPUT(../alarm_dbg.elf elf32-powerpc)
